; dlltool --base-file C:\DOCUME~1\PetkoP\LOCALS~1\Temp/cca02752.base --output-exp win_context_menu.exp --dllname win_context_menu.dll --output-def libwin_context_menu.def --add-stdcall-alias --exclude-symbol=DllMainCRTStartup@12 --def C:\DOCUME~1\PetkoP\LOCALS~1\Temp/cca02752.def --output-lib libwin_context_menu.a
EXPORTS
	CLSID_ShellExtension @ 1 DATA
	DllCanUnloadNow = DllCanUnloadNow@0 @ 2
	DllCanUnloadNow@0 @ 3
	DllGetClassObject = DllGetClassObject@12 @ 4
	DllGetClassObject@12 @ 5
	DllRegisterServer = DllRegisterServer@0 @ 6
	DllRegisterServer@0 @ 7
	DllUnregisterServer = DllUnregisterServer@0 @ 8
	DllUnregisterServer@0 @ 9
	RegPath1 @ 10 DATA
	RegPath2 @ 11 DATA
;	TiXmlFOpen(char const*, char const*)
	_Z10TiXmlFOpenPKcS0_ @ 12
;	IsEqualGUID(_GUID const&, _GUID const&)
	_Z11IsEqualGUIDRK5_GUIDS1_ @ 13
;	MsgBoxDebug(char*)
	_Z11MsgBoxDebugPc @ 14
;	MsgBoxError(char*)
	_Z11MsgBoxErrorPc @ 15
;	RegisterServer(_GUID, char*)
	_Z14RegisterServer5_GUIDPc @ 16
;	UnregisterServer(_GUID, char*)
	_Z16UnregisterServer5_GUIDPc @ 17
;	MsgBox(char*)
	_Z6MsgBoxPc @ 18
;	ItemIDList::toString(char*)
	_ZN10ItemIDList8toStringEPc @ 19
;	ItemIDList::ItemIDList(_ITEMIDLIST const*, _ITEMIDLIST const*)
	_ZN10ItemIDListC1EPK11_ITEMIDLISTS2_ @ 20
;	ItemIDList::ItemIDList(_ITEMIDLIST const*, _ITEMIDLIST const*)
	_ZN10ItemIDListC2EPK11_ITEMIDLISTS2_ @ 21
;	ItemIDList::~ItemIDList()
	_ZN10ItemIDListD0Ev @ 22
;	ItemIDList::~ItemIDList()
	_ZN10ItemIDListD1Ev @ 23
;	ItemIDList::~ItemIDList()
	_ZN10ItemIDListD2Ev @ 24
;	ItemIDList::operator&()
	_ZN10ItemIDListadEv @ 25
;	NFAEndNode::NFAEndNode()
	_ZN10NFAEndNodeC1Ev @ 26
;	NFAEndNode::NFAEndNode()
	_ZN10NFAEndNodeC2Ev @ 27
;	NFAEndNode::~NFAEndNode()
	_ZN10NFAEndNodeD0Ev @ 28
;	NFAEndNode::~NFAEndNode()
	_ZN10NFAEndNodeD1Ev @ 29
;	NFAOrUNode::findAllNodes(std::map<NFAUNode*, bool, std::less<NFAUNode*>, std::allocator<std::pair<NFAUNode* const, bool> > >&)
	_ZN10NFAOrUNode12findAllNodesERSt3mapIP8NFAUNodebSt4lessIS2_ESaISt4pairIKS2_bEEE @ 30
;	NFAOrUNode::NFAOrUNode(NFAUNode*, NFAUNode*)
	_ZN10NFAOrUNodeC1EP8NFAUNodeS1_ @ 31
;	NFAOrUNode::NFAOrUNode(NFAUNode*, NFAUNode*)
	_ZN10NFAOrUNodeC2EP8NFAUNodeS1_ @ 32
;	NFAOrUNode::~NFAOrUNode()
	_ZN10NFAOrUNodeD0Ev @ 33
;	NFAOrUNode::~NFAOrUNode()
	_ZN10NFAOrUNodeD1Ev @ 34
;	NFACharNode::print(int)
	_ZN11NFACharNode5printEi @ 35
;	NFACharNode::NFACharNode(char)
	_ZN11NFACharNodeC1Ec @ 36
;	NFACharNode::NFACharNode(char)
	_ZN11NFACharNodeC2Ec @ 37
;	NFACharNode::~NFACharNode()
	_ZN11NFACharNodeD0Ev @ 38
;	NFACharNode::~NFACharNode()
	_ZN11NFACharNodeD1Ev @ 39
;	NFAEndUNode::NFAEndUNode()
	_ZN11NFAEndUNodeC1Ev @ 40
;	NFAEndUNode::NFAEndUNode()
	_ZN11NFAEndUNodeC2Ev @ 41
;	NFAEndUNode::~NFAEndUNode()
	_ZN11NFAEndUNodeD0Ev @ 42
;	NFAEndUNode::~NFAEndUNode()
	_ZN11NFAEndUNodeD1Ev @ 43
;	TiXmlCursor::Clear()
	_ZN11TiXmlCursor5ClearEv @ 44
;	TiXmlCursor::TiXmlCursor()
	_ZN11TiXmlCursorC1Ev @ 45
;	TiXmlHandle::TiXmlHandle(TiXmlNode*)
	_ZN11TiXmlHandleC1EP9TiXmlNode @ 46
;	TiXmlString::init(unsigned int)
	_ZN11TiXmlString4initEj @ 47
;	TiXmlString::init(unsigned int, unsigned int)
	_ZN11TiXmlString4initEjj @ 48
;	TiXmlString::npos
	_ZN11TiXmlString4nposE @ 49 DATA
;	TiXmlString::quit()
	_ZN11TiXmlString4quitEv @ 50
;	TiXmlString::swap(TiXmlString&)
	_ZN11TiXmlString4swapERS_ @ 51
;	TiXmlString::append(char const*, unsigned int)
	_ZN11TiXmlString6appendEPKcj @ 52
;	TiXmlString::assign(char const*, unsigned int)
	_ZN11TiXmlString6assignEPKcj @ 53
;	TiXmlString::reserve(unsigned int)
	_ZN11TiXmlString7reserveEj @ 54
;	TiXmlString::nullrep_
	_ZN11TiXmlString8nullrep_E @ 55 DATA
;	TiXmlString::set_size(unsigned int)
	_ZN11TiXmlString8set_sizeEj @ 56
;	TiXmlString::TiXmlString(char const*)
	_ZN11TiXmlStringC1EPKc @ 57
;	TiXmlString::TiXmlString()
	_ZN11TiXmlStringC1Ev @ 58
;	TiXmlString::TiXmlString(char const*)
	_ZN11TiXmlStringC2EPKc @ 59
;	TiXmlString::TiXmlString(TiXmlString const&)
	_ZN11TiXmlStringC2ERKS_ @ 60
;	TiXmlString::TiXmlString()
	_ZN11TiXmlStringC2Ev @ 61
;	TiXmlString::~TiXmlString()
	_ZN11TiXmlStringD1Ev @ 62
;	TiXmlString::~TiXmlString()
	_ZN11TiXmlStringD2Ev @ 63
;	TiXmlString::operator=(char const*)
	_ZN11TiXmlStringaSEPKc @ 64
;	TiXmlString::operator=(TiXmlString const&)
	_ZN11TiXmlStringaSERKS_ @ 65
;	TiXmlString::operator+=(char const*)
	_ZN11TiXmlStringpLEPKc @ 66
;	TiXmlString::operator+=(TiXmlString const&)
	_ZN11TiXmlStringpLERKS_ @ 67
;	TiXmlString::operator+=(char)
	_ZN11TiXmlStringpLEc @ 68
;	IContextMenu::IContextMenu()
	_ZN12IContextMenuC2Ev @ 69
;	NFACharUNode::NFACharUNode(wchar_t)
	_ZN12NFACharUNodeC1Ew @ 70
;	NFACharUNode::NFACharUNode(wchar_t)
	_ZN12NFACharUNodeC2Ew @ 71
;	NFACharUNode::~NFACharUNode()
	_ZN12NFACharUNodeD0Ev @ 72
;	NFACharUNode::~NFACharUNode()
	_ZN12NFACharUNodeD1Ev @ 73
;	NFAClassNode::print(int)
	_ZN12NFAClassNode5printEi @ 74
;	NFAClassNode::NFAClassNode(std::string const&, bool)
	_ZN12NFAClassNodeC1ERKSsb @ 75
;	NFAClassNode::NFAClassNode(bool)
	_ZN12NFAClassNodeC1Eb @ 76
;	NFAClassNode::NFAClassNode(std::string const&, bool)
	_ZN12NFAClassNodeC2ERKSsb @ 77
;	NFAClassNode::NFAClassNode(bool)
	_ZN12NFAClassNodeC2Eb @ 78
;	NFAClassNode::~NFAClassNode()
	_ZN12NFAClassNodeD0Ev @ 79
;	NFAClassNode::~NFAClassNode()
	_ZN12NFAClassNodeD1Ev @ 80
;	NFAQuoteNode::print(int)
	_ZN12NFAQuoteNode5printEi @ 81
;	NFAQuoteNode::NFAQuoteNode(std::string const&)
	_ZN12NFAQuoteNodeC1ERKSs @ 82
;	NFAQuoteNode::NFAQuoteNode(std::string const&)
	_ZN12NFAQuoteNodeC2ERKSs @ 83
;	NFAQuoteNode::~NFAQuoteNode()
	_ZN12NFAQuoteNodeD0Ev @ 84
;	NFAQuoteNode::~NFAQuoteNode()
	_ZN12NFAQuoteNodeD1Ev @ 85
;	NFAStartNode::NFAStartNode()
	_ZN12NFAStartNodeC1Ev @ 86
;	NFAStartNode::NFAStartNode()
	_ZN12NFAStartNodeC2Ev @ 87
;	NFAStartNode::~NFAStartNode()
	_ZN12NFAStartNodeD0Ev @ 88
;	NFAStartNode::~NFAStartNode()
	_ZN12NFAStartNodeD1Ev @ 89
;	TiXmlComment::Parse(char const*, TiXmlParsingData*, TiXmlEncoding)
	_ZN12TiXmlComment5ParseEPKcP16TiXmlParsingData13TiXmlEncoding @ 90
;	TiXmlComment::ToComment()
	_ZN12TiXmlComment9ToCommentEv @ 91
;	TiXmlComment::TiXmlComment(TiXmlComment const&)
	_ZN12TiXmlCommentC1ERKS_ @ 92
;	TiXmlComment::TiXmlComment()
	_ZN12TiXmlCommentC1Ev @ 93
;	TiXmlComment::TiXmlComment(TiXmlComment const&)
	_ZN12TiXmlCommentC2ERKS_ @ 94
;	TiXmlComment::~TiXmlComment()
	_ZN12TiXmlCommentD0Ev @ 95
;	TiXmlComment::~TiXmlComment()
	_ZN12TiXmlCommentD1Ev @ 96
;	TiXmlComment::operator=(TiXmlComment const&)
	_ZN12TiXmlCommentaSERKS_ @ 97
;	TiXmlElement::SetAttribute(char const*, char const*)
	_ZN12TiXmlElement12SetAttributeEPKcS1_ @ 98
;	TiXmlElement::SetAttribute(char const*, int)
	_ZN12TiXmlElement12SetAttributeEPKci @ 99
;	TiXmlElement::RemoveAttribute(char const*)
	_ZN12TiXmlElement15RemoveAttributeEPKc @ 100
;	TiXmlElement::SetDoubleAttribute(char const*, double)
	_ZN12TiXmlElement18SetDoubleAttributeEPKcd @ 101
;	TiXmlElement::Parse(char const*, TiXmlParsingData*, TiXmlEncoding)
	_ZN12TiXmlElement5ParseEPKcP16TiXmlParsingData13TiXmlEncoding @ 102
;	TiXmlElement::ClearThis()
	_ZN12TiXmlElement9ClearThisEv @ 103
;	TiXmlElement::ReadValue(char const*, TiXmlParsingData*, TiXmlEncoding)
	_ZN12TiXmlElement9ReadValueEPKcP16TiXmlParsingData13TiXmlEncoding @ 104
;	TiXmlElement::ToElement()
	_ZN12TiXmlElement9ToElementEv @ 105
;	TiXmlElement::TiXmlElement(char const*)
	_ZN12TiXmlElementC1EPKc @ 106
;	TiXmlElement::TiXmlElement(TiXmlElement const&)
	_ZN12TiXmlElementC1ERKS_ @ 107
;	TiXmlElement::TiXmlElement(char const*)
	_ZN12TiXmlElementC2EPKc @ 108
;	TiXmlElement::TiXmlElement(TiXmlElement const&)
	_ZN12TiXmlElementC2ERKS_ @ 109
;	TiXmlElement::~TiXmlElement()
	_ZN12TiXmlElementD0Ev @ 110
;	TiXmlElement::~TiXmlElement()
	_ZN12TiXmlElementD1Ev @ 111
;	TiXmlElement::~TiXmlElement()
	_ZN12TiXmlElementD2Ev @ 112
;	TiXmlElement::operator=(TiXmlElement const&)
	_ZN12TiXmlElementaSERKS_ @ 113
;	TiXmlPrinter::VisitEnter(TiXmlElement const&, TiXmlAttribute const*)
	_ZN12TiXmlPrinter10VisitEnterERK12TiXmlElementPK14TiXmlAttribute @ 114
;	TiXmlPrinter::VisitEnter(TiXmlDocument const&)
	_ZN12TiXmlPrinter10VisitEnterERK13TiXmlDocument @ 115
;	TiXmlPrinter::DoLineBreak()
	_ZN12TiXmlPrinter11DoLineBreakEv @ 116
;	TiXmlPrinter::Visit(TiXmlComment const&)
	_ZN12TiXmlPrinter5VisitERK12TiXmlComment @ 117
;	TiXmlPrinter::Visit(TiXmlUnknown const&)
	_ZN12TiXmlPrinter5VisitERK12TiXmlUnknown @ 118
;	TiXmlPrinter::Visit(TiXmlDeclaration const&)
	_ZN12TiXmlPrinter5VisitERK16TiXmlDeclaration @ 119
;	TiXmlPrinter::Visit(TiXmlText const&)
	_ZN12TiXmlPrinter5VisitERK9TiXmlText @ 120
;	TiXmlPrinter::DoIndent()
	_ZN12TiXmlPrinter8DoIndentEv @ 121
;	TiXmlPrinter::VisitExit(TiXmlElement const&)
	_ZN12TiXmlPrinter9VisitExitERK12TiXmlElement @ 122
;	TiXmlPrinter::VisitExit(TiXmlDocument const&)
	_ZN12TiXmlPrinter9VisitExitERK13TiXmlDocument @ 123
;	TiXmlPrinter::~TiXmlPrinter()
	_ZN12TiXmlPrinterD0Ev @ 124
;	TiXmlPrinter::~TiXmlPrinter()
	_ZN12TiXmlPrinterD1Ev @ 125
;	TiXmlUnknown::Parse(char const*, TiXmlParsingData*, TiXmlEncoding)
	_ZN12TiXmlUnknown5ParseEPKcP16TiXmlParsingData13TiXmlEncoding @ 126
;	TiXmlUnknown::ToUnknown()
	_ZN12TiXmlUnknown9ToUnknownEv @ 127
;	TiXmlUnknown::TiXmlUnknown()
	_ZN12TiXmlUnknownC1Ev @ 128
;	TiXmlUnknown::~TiXmlUnknown()
	_ZN12TiXmlUnknownD0Ev @ 129
;	TiXmlUnknown::~TiXmlUnknown()
	_ZN12TiXmlUnknownD1Ev @ 130
;	TiXmlVisitor::VisitEnter(TiXmlElement const&, TiXmlAttribute const*)
	_ZN12TiXmlVisitor10VisitEnterERK12TiXmlElementPK14TiXmlAttribute @ 131
;	TiXmlVisitor::VisitEnter(TiXmlDocument const&)
	_ZN12TiXmlVisitor10VisitEnterERK13TiXmlDocument @ 132
;	TiXmlVisitor::Visit(TiXmlComment const&)
	_ZN12TiXmlVisitor5VisitERK12TiXmlComment @ 133
;	TiXmlVisitor::Visit(TiXmlUnknown const&)
	_ZN12TiXmlVisitor5VisitERK12TiXmlUnknown @ 134
;	TiXmlVisitor::Visit(TiXmlDeclaration const&)
	_ZN12TiXmlVisitor5VisitERK16TiXmlDeclaration @ 135
;	TiXmlVisitor::Visit(TiXmlText const&)
	_ZN12TiXmlVisitor5VisitERK9TiXmlText @ 136
;	TiXmlVisitor::VisitExit(TiXmlElement const&)
	_ZN12TiXmlVisitor9VisitExitERK12TiXmlElement @ 137
;	TiXmlVisitor::VisitExit(TiXmlDocument const&)
	_ZN12TiXmlVisitor9VisitExitERK13TiXmlDocument @ 138
;	TiXmlVisitor::~TiXmlVisitor()
	_ZN12TiXmlVisitorD0Ev @ 139
;	TiXmlVisitor::~TiXmlVisitor()
	_ZN12TiXmlVisitorD1Ev @ 140
;	TiXmlVisitor::~TiXmlVisitor()
	_ZN12TiXmlVisitorD2Ev @ 141
;	IClassFactory::IClassFactory()
	_ZN13IClassFactoryC2Ev @ 142
;	IShellExtInit::IShellExtInit()
	_ZN13IShellExtInitC2Ev @ 143
;	NFAAcceptNode::NFAAcceptNode()
	_ZN13NFAAcceptNodeC1Ev @ 144
;	NFAAcceptNode::NFAAcceptNode()
	_ZN13NFAAcceptNodeC2Ev @ 145
;	NFAAcceptNode::~NFAAcceptNode()
	_ZN13NFAAcceptNodeD0Ev @ 146
;	NFAAcceptNode::~NFAAcceptNode()
	_ZN13NFAAcceptNodeD1Ev @ 147
;	NFACICharNode::print(int)
	_ZN13NFACICharNode5printEi @ 148
;	NFACICharNode::NFACICharNode(char)
	_ZN13NFACICharNodeC1Ec @ 149
;	NFACICharNode::NFACICharNode(char)
	_ZN13NFACICharNodeC2Ec @ 150
;	NFACICharNode::~NFACICharNode()
	_ZN13NFACICharNodeD0Ev @ 151
;	NFACICharNode::~NFACICharNode()
	_ZN13NFACICharNodeD1Ev @ 152
;	NFAClassUNode::NFAClassUNode(std::basic_string<wchar_t, std::char_traits<wchar_t>, std::allocator<wchar_t> > const&, bool)
	_ZN13NFAClassUNodeC1ERKSbIwSt11char_traitsIwESaIwEEb @ 153
;	NFAClassUNode::NFAClassUNode(bool)
	_ZN13NFAClassUNodeC1Eb @ 154
;	NFAClassUNode::NFAClassUNode(std::basic_string<wchar_t, std::char_traits<wchar_t>, std::allocator<wchar_t> > const&, bool)
	_ZN13NFAClassUNodeC2ERKSbIwSt11char_traitsIwESaIwEEb @ 155
;	NFAClassUNode::NFAClassUNode(bool)
	_ZN13NFAClassUNodeC2Eb @ 156
;	NFAClassUNode::~NFAClassUNode()
	_ZN13NFAClassUNodeD0Ev @ 157
;	NFAClassUNode::~NFAClassUNode()
	_ZN13NFAClassUNodeD1Ev @ 158
;	NFAQuoteUNode::NFAQuoteUNode(std::basic_string<wchar_t, std::char_traits<wchar_t>, std::allocator<wchar_t> > const&)
	_ZN13NFAQuoteUNodeC1ERKSbIwSt11char_traitsIwESaIwEE @ 159
;	NFAQuoteUNode::NFAQuoteUNode(std::basic_string<wchar_t, std::char_traits<wchar_t>, std::allocator<wchar_t> > const&)
	_ZN13NFAQuoteUNodeC2ERKSbIwSt11char_traitsIwESaIwEE @ 160
;	NFAQuoteUNode::~NFAQuoteUNode()
	_ZN13NFAQuoteUNodeD0Ev @ 161
;	NFAQuoteUNode::~NFAQuoteUNode()
	_ZN13NFAQuoteUNodeD1Ev @ 162
;	NFAStartUNode::NFAStartUNode()
	_ZN13NFAStartUNodeC1Ev @ 163
;	NFAStartUNode::NFAStartUNode()
	_ZN13NFAStartUNodeC2Ev @ 164
;	NFAStartUNode::~NFAStartUNode()
	_ZN13NFAStartUNodeD0Ev @ 165
;	NFAStartUNode::~NFAStartUNode()
	_ZN13NFAStartUNodeD1Ev @ 166
;	TiXmlDocument::ClearError()
	_ZN13TiXmlDocument10ClearErrorEv @ 167
;	TiXmlDocument::ToDocument()
	_ZN13TiXmlDocument10ToDocumentEv @ 168
;	TiXmlDocument::Parse(char const*, TiXmlParsingData*, TiXmlEncoding)
	_ZN13TiXmlDocument5ParseEPKcP16TiXmlParsingData13TiXmlEncoding @ 169
;	TiXmlDocument::LoadFile(TiXmlEncoding)
	_ZN13TiXmlDocument8LoadFileE13TiXmlEncoding @ 170
;	TiXmlDocument::LoadFile(_iobuf*, TiXmlEncoding)
	_ZN13TiXmlDocument8LoadFileEP6_iobuf13TiXmlEncoding @ 171
;	TiXmlDocument::LoadFile(char const*, TiXmlEncoding)
	_ZN13TiXmlDocument8LoadFileEPKc13TiXmlEncoding @ 172
;	TiXmlDocument::SetError(int, char const*, TiXmlParsingData*, TiXmlEncoding)
	_ZN13TiXmlDocument8SetErrorEiPKcP16TiXmlParsingData13TiXmlEncoding @ 173
;	TiXmlDocument::TiXmlDocument(char const*)
	_ZN13TiXmlDocumentC1EPKc @ 174
;	TiXmlDocument::TiXmlDocument(TiXmlDocument const&)
	_ZN13TiXmlDocumentC1ERKS_ @ 175
;	TiXmlDocument::TiXmlDocument()
	_ZN13TiXmlDocumentC1Ev @ 176
;	TiXmlDocument::TiXmlDocument(char const*)
	_ZN13TiXmlDocumentC2EPKc @ 177
;	TiXmlDocument::TiXmlDocument(TiXmlDocument const&)
	_ZN13TiXmlDocumentC2ERKS_ @ 178
;	TiXmlDocument::TiXmlDocument()
	_ZN13TiXmlDocumentC2Ev @ 179
;	TiXmlDocument::~TiXmlDocument()
	_ZN13TiXmlDocumentD0Ev @ 180
;	TiXmlDocument::~TiXmlDocument()
	_ZN13TiXmlDocumentD1Ev @ 181
;	TiXmlDocument::operator=(TiXmlDocument const&)
	_ZN13TiXmlDocumentaSERKS_ @ 182
;	NFAAcceptUNode::NFAAcceptUNode()
	_ZN14NFAAcceptUNodeC1Ev @ 183
;	NFAAcceptUNode::NFAAcceptUNode()
	_ZN14NFAAcceptUNodeC2Ev @ 184
;	NFAAcceptUNode::~NFAAcceptUNode()
	_ZN14NFAAcceptUNodeD0Ev @ 185
;	NFAAcceptUNode::~NFAAcceptUNode()
	_ZN14NFAAcceptUNodeD1Ev @ 186
;	NFACICharUNode::NFACICharUNode(wchar_t)
	_ZN14NFACICharUNodeC1Ew @ 187
;	NFACICharUNode::NFACICharUNode(wchar_t)
	_ZN14NFACICharUNodeC2Ew @ 188
;	NFACICharUNode::~NFACICharUNode()
	_ZN14NFACICharUNodeD0Ev @ 189
;	NFACICharUNode::~NFACICharUNode()
	_ZN14NFACICharUNodeD1Ev @ 190
;	NFACIClassNode::print(int)
	_ZN14NFACIClassNode5printEi @ 191
;	NFACIClassNode::NFACIClassNode(std::string const&, bool)
	_ZN14NFACIClassNodeC1ERKSsb @ 192
;	NFACIClassNode::NFACIClassNode(bool)
	_ZN14NFACIClassNodeC1Eb @ 193
;	NFACIClassNode::NFACIClassNode(std::string const&, bool)
	_ZN14NFACIClassNodeC2ERKSsb @ 194
;	NFACIClassNode::NFACIClassNode(bool)
	_ZN14NFACIClassNodeC2Eb @ 195
;	NFACIClassNode::~NFACIClassNode()
	_ZN14NFACIClassNodeD0Ev @ 196
;	NFACIClassNode::~NFACIClassNode()
	_ZN14NFACIClassNodeD1Ev @ 197
;	NFACIQuoteNode::print(int)
	_ZN14NFACIQuoteNode5printEi @ 198
;	NFACIQuoteNode::NFACIQuoteNode(std::string const&)
	_ZN14NFACIQuoteNodeC1ERKSs @ 199
;	NFACIQuoteNode::NFACIQuoteNode(std::string const&)
	_ZN14NFACIQuoteNodeC2ERKSs @ 200
;	NFACIQuoteNode::~NFACIQuoteNode()
	_ZN14NFACIQuoteNodeD0Ev @ 201
;	NFACIQuoteNode::~NFACIQuoteNode()
	_ZN14NFACIQuoteNodeD1Ev @ 202
;	TiXmlAttribute::SetDocument(TiXmlDocument*)
	_ZN14TiXmlAttribute11SetDocumentEP13TiXmlDocument @ 203
;	TiXmlAttribute::SetIntValue(int)
	_ZN14TiXmlAttribute11SetIntValueEi @ 204
;	TiXmlAttribute::SetDoubleValue(double)
	_ZN14TiXmlAttribute14SetDoubleValueEd @ 205
;	TiXmlAttribute::Parse(char const*, TiXmlParsingData*, TiXmlEncoding)
	_ZN14TiXmlAttribute5ParseEPKcP16TiXmlParsingData13TiXmlEncoding @ 206
;	TiXmlAttribute::SetValue(char const*)
	_ZN14TiXmlAttribute8SetValueEPKc @ 207
;	TiXmlAttribute::TiXmlAttribute(char const*, char const*)
	_ZN14TiXmlAttributeC1EPKcS1_ @ 208
;	TiXmlAttribute::TiXmlAttribute()
	_ZN14TiXmlAttributeC1Ev @ 209
;	TiXmlAttribute::~TiXmlAttribute()
	_ZN14TiXmlAttributeD0Ev @ 210
;	TiXmlAttribute::~TiXmlAttribute()
	_ZN14TiXmlAttributeD1Ev @ 211
;	TiXmlOutStream::TiXmlOutStream()
	_ZN14TiXmlOutStreamC1Ev @ 212
;	TiXmlOutStream::~TiXmlOutStream()
	_ZN14TiXmlOutStreamD1Ev @ 213
;	TiXmlOutStream::operator<<(char const*)
	_ZN14TiXmlOutStreamlsEPKc @ 214
;	ContextMenuItem::getName()
	_ZN15ContextMenuItem7getNameEv @ 215
;	ContextMenuItem::ContextMenuItem(TiXmlElement*)
	_ZN15ContextMenuItemC1EP12TiXmlElement @ 216
;	NFACIClassUNode::NFACIClassUNode(std::basic_string<wchar_t, std::char_traits<wchar_t>, std::allocator<wchar_t> > const&, bool)
	_ZN15NFACIClassUNodeC1ERKSbIwSt11char_traitsIwESaIwEEb @ 217
;	NFACIClassUNode::NFACIClassUNode(bool)
	_ZN15NFACIClassUNodeC1Eb @ 218
;	NFACIClassUNode::NFACIClassUNode(std::basic_string<wchar_t, std::char_traits<wchar_t>, std::allocator<wchar_t> > const&, bool)
	_ZN15NFACIClassUNodeC2ERKSbIwSt11char_traitsIwESaIwEEb @ 219
;	NFACIClassUNode::NFACIClassUNode(bool)
	_ZN15NFACIClassUNodeC2Eb @ 220
;	NFACIClassUNode::~NFACIClassUNode()
	_ZN15NFACIClassUNodeD0Ev @ 221
;	NFACIClassUNode::~NFACIClassUNode()
	_ZN15NFACIClassUNodeD1Ev @ 222
;	NFACIQuoteUNode::NFACIQuoteUNode(std::basic_string<wchar_t, std::char_traits<wchar_t>, std::allocator<wchar_t> > const&)
	_ZN15NFACIQuoteUNodeC1ERKSbIwSt11char_traitsIwESaIwEE @ 223
;	NFACIQuoteUNode::NFACIQuoteUNode(std::basic_string<wchar_t, std::char_traits<wchar_t>, std::allocator<wchar_t> > const&)
	_ZN15NFACIQuoteUNodeC2ERKSbIwSt11char_traitsIwESaIwEE @ 224
;	NFACIQuoteUNode::~NFACIQuoteUNode()
	_ZN15NFACIQuoteUNodeD0Ev @ 225
;	NFACIQuoteUNode::~NFACIQuoteUNode()
	_ZN15NFACIQuoteUNodeD1Ev @ 226
;	NFASubStartNode::NFASubStartNode()
	_ZN15NFASubStartNodeC1Ev @ 227
;	NFASubStartNode::NFASubStartNode()
	_ZN15NFASubStartNodeC2Ev @ 228
;	NFASubStartNode::~NFASubStartNode()
	_ZN15NFASubStartNodeD0Ev @ 229
;	NFASubStartNode::~NFASubStartNode()
	_ZN15NFASubStartNodeD1Ev @ 230
;	NFAEndOfLineNode::NFAEndOfLineNode()
	_ZN16NFAEndOfLineNodeC1Ev @ 231
;	NFAEndOfLineNode::NFAEndOfLineNode()
	_ZN16NFAEndOfLineNodeC2Ev @ 232
;	NFAEndOfLineNode::~NFAEndOfLineNode()
	_ZN16NFAEndOfLineNodeD0Ev @ 233
;	NFAEndOfLineNode::~NFAEndOfLineNode()
	_ZN16NFAEndOfLineNodeD1Ev @ 234
;	NFAGroupHeadNode::print(int)
	_ZN16NFAGroupHeadNode5printEi @ 235
;	NFAGroupHeadNode::NFAGroupHeadNode(int)
	_ZN16NFAGroupHeadNodeC1Ei @ 236
;	NFAGroupHeadNode::NFAGroupHeadNode(int)
	_ZN16NFAGroupHeadNodeC2Ei @ 237
;	NFAGroupHeadNode::~NFAGroupHeadNode()
	_ZN16NFAGroupHeadNodeD0Ev @ 238
;	NFAGroupHeadNode::~NFAGroupHeadNode()
	_ZN16NFAGroupHeadNodeD1Ev @ 239
;	NFAGroupLoopNode::findAllNodes(std::map<NFANode*, bool, std::less<NFANode*>, std::allocator<std::pair<NFANode* const, bool> > >&)
	_ZN16NFAGroupLoopNode12findAllNodesERSt3mapIP7NFANodebSt4lessIS2_ESaISt4pairIKS2_bEEE @ 240
;	NFAGroupLoopNode::print(int)
	_ZN16NFAGroupLoopNode5printEi @ 241
;	NFAGroupLoopNode::NFAGroupLoopNode(NFANode*, int, int, int, int)
	_ZN16NFAGroupLoopNodeC1EP7NFANodeiiii @ 242
;	NFAGroupLoopNode::NFAGroupLoopNode(NFANode*, int, int, int, int)
	_ZN16NFAGroupLoopNodeC2EP7NFANodeiiii @ 243
;	NFAGroupLoopNode::~NFAGroupLoopNode()
	_ZN16NFAGroupLoopNodeD0Ev @ 244
;	NFAGroupLoopNode::~NFAGroupLoopNode()
	_ZN16NFAGroupLoopNodeD1Ev @ 245
;	NFAGroupTailNode::print(int)
	_ZN16NFAGroupTailNode5printEi @ 246
;	NFAGroupTailNode::NFAGroupTailNode(int)
	_ZN16NFAGroupTailNodeC1Ei @ 247
;	NFAGroupTailNode::NFAGroupTailNode(int)
	_ZN16NFAGroupTailNodeC2Ei @ 248
;	NFAGroupTailNode::~NFAGroupTailNode()
	_ZN16NFAGroupTailNodeD0Ev @ 249
;	NFAGroupTailNode::~NFAGroupTailNode()
	_ZN16NFAGroupTailNodeD1Ev @ 250
;	NFALookAheadNode::findAllNodes(std::map<NFANode*, bool, std::less<NFANode*>, std::allocator<std::pair<NFANode* const, bool> > >&)
	_ZN16NFALookAheadNode12findAllNodesERSt3mapIP7NFANodebSt4lessIS2_ESaISt4pairIKS2_bEEE @ 251
;	NFALookAheadNode::print(int)
	_ZN16NFALookAheadNode5printEi @ 252
;	NFALookAheadNode::NFALookAheadNode(NFANode*, bool)
	_ZN16NFALookAheadNodeC1EP7NFANodeb @ 253
;	NFALookAheadNode::NFALookAheadNode(NFANode*, bool)
	_ZN16NFALookAheadNodeC2EP7NFANodeb @ 254
;	NFALookAheadNode::~NFALookAheadNode()
	_ZN16NFALookAheadNodeD0Ev @ 255
;	NFALookAheadNode::~NFALookAheadNode()
	_ZN16NFALookAheadNodeD1Ev @ 256
;	NFAReferenceNode::print(int)
	_ZN16NFAReferenceNode5printEi @ 257
;	NFAReferenceNode::NFAReferenceNode(int)
	_ZN16NFAReferenceNodeC1Ei @ 258
;	NFAReferenceNode::NFAReferenceNode(int)
	_ZN16NFAReferenceNodeC2Ei @ 259
;	NFAReferenceNode::~NFAReferenceNode()
	_ZN16NFAReferenceNodeD0Ev @ 260
;	NFAReferenceNode::~NFAReferenceNode()
	_ZN16NFAReferenceNodeD1Ev @ 261
;	NFASubStartUNode::NFASubStartUNode()
	_ZN16NFASubStartUNodeC1Ev @ 262
;	NFASubStartUNode::NFASubStartUNode()
	_ZN16NFASubStartUNodeC2Ev @ 263
;	NFASubStartUNode::~NFASubStartUNode()
	_ZN16NFASubStartUNodeD0Ev @ 264
;	NFASubStartUNode::~NFASubStartUNode()
	_ZN16NFASubStartUNodeD1Ev @ 265
;	TiXmlDeclaration::ToDeclaration()
	_ZN16TiXmlDeclaration13ToDeclarationEv @ 266
;	TiXmlDeclaration::Parse(char const*, TiXmlParsingData*, TiXmlEncoding)
	_ZN16TiXmlDeclaration5ParseEPKcP16TiXmlParsingData13TiXmlEncoding @ 267
;	TiXmlDeclaration::TiXmlDeclaration(char const*, char const*, char const*)
	_ZN16TiXmlDeclarationC1EPKcS1_S1_ @ 268
;	TiXmlDeclaration::TiXmlDeclaration(TiXmlDeclaration const&)
	_ZN16TiXmlDeclarationC1ERKS_ @ 269
;	TiXmlDeclaration::TiXmlDeclaration()
	_ZN16TiXmlDeclarationC1Ev @ 270
;	TiXmlDeclaration::TiXmlDeclaration(char const*, char const*, char const*)
	_ZN16TiXmlDeclarationC2EPKcS1_S1_ @ 271
;	TiXmlDeclaration::TiXmlDeclaration(TiXmlDeclaration const&)
	_ZN16TiXmlDeclarationC2ERKS_ @ 272
;	TiXmlDeclaration::~TiXmlDeclaration()
	_ZN16TiXmlDeclarationD0Ev @ 273
;	TiXmlDeclaration::~TiXmlDeclaration()
	_ZN16TiXmlDeclarationD1Ev @ 274
;	TiXmlDeclaration::operator=(TiXmlDeclaration const&)
	_ZN16TiXmlDeclarationaSERKS_ @ 275
;	TiXmlParsingData::Stamp(char const*, TiXmlEncoding)
	_ZN16TiXmlParsingData5StampEPKc13TiXmlEncoding @ 276
;	TiXmlParsingData::Cursor()
	_ZN16TiXmlParsingData6CursorEv @ 277
;	TiXmlParsingData::TiXmlParsingData(char const*, int, int, int)
	_ZN16TiXmlParsingDataC1EPKciii @ 278
;	ContextMenuString::rfind(char)
	_ZN17ContextMenuString5rfindEc @ 279
;	ContextMenuString::substring(int, int)
	_ZN17ContextMenuString9substringEii @ 280
;	ContextMenuString::ContextMenuString(char const*)
	_ZN17ContextMenuStringC1EPKc @ 281
;	ContextMenuString::ContextMenuString(ContextMenuString const&)
	_ZN17ContextMenuStringC1ERKS_ @ 282
;	ContextMenuString::ContextMenuString()
	_ZN17ContextMenuStringC1Ev @ 283
;	ContextMenuString::~ContextMenuString()
	_ZN17ContextMenuStringD1Ev @ 284
;	ContextMenuString::operator=(char const*)
	_ZN17ContextMenuStringaSEPKc @ 285
;	NFAEndOfInputNode::print(int)
	_ZN17NFAEndOfInputNode5printEi @ 286
;	NFAEndOfInputNode::NFAEndOfInputNode(bool)
	_ZN17NFAEndOfInputNodeC1Eb @ 287
;	NFAEndOfInputNode::NFAEndOfInputNode(bool)
	_ZN17NFAEndOfInputNodeC2Eb @ 288
;	NFAEndOfInputNode::~NFAEndOfInputNode()
	_ZN17NFAEndOfInputNodeD0Ev @ 289
;	NFAEndOfInputNode::~NFAEndOfInputNode()
	_ZN17NFAEndOfInputNodeD1Ev @ 290
;	NFAEndOfLineUNode::NFAEndOfLineUNode()
	_ZN17NFAEndOfLineUNodeC1Ev @ 291
;	NFAEndOfLineUNode::NFAEndOfLineUNode()
	_ZN17NFAEndOfLineUNodeC2Ev @ 292
;	NFAEndOfLineUNode::~NFAEndOfLineUNode()
	_ZN17NFAEndOfLineUNodeD0Ev @ 293
;	NFAEndOfLineUNode::~NFAEndOfLineUNode()
	_ZN17NFAEndOfLineUNodeD1Ev @ 294
;	NFAEndOfMatchNode::NFAEndOfMatchNode()
	_ZN17NFAEndOfMatchNodeC1Ev @ 295
;	NFAEndOfMatchNode::NFAEndOfMatchNode()
	_ZN17NFAEndOfMatchNodeC2Ev @ 296
;	NFAEndOfMatchNode::~NFAEndOfMatchNode()
	_ZN17NFAEndOfMatchNodeD0Ev @ 297
;	NFAEndOfMatchNode::~NFAEndOfMatchNode()
	_ZN17NFAEndOfMatchNodeD1Ev @ 298
;	NFAGroupHeadUNode::NFAGroupHeadUNode(int)
	_ZN17NFAGroupHeadUNodeC1Ei @ 299
;	NFAGroupHeadUNode::NFAGroupHeadUNode(int)
	_ZN17NFAGroupHeadUNodeC2Ei @ 300
;	NFAGroupHeadUNode::~NFAGroupHeadUNode()
	_ZN17NFAGroupHeadUNodeD0Ev @ 301
;	NFAGroupHeadUNode::~NFAGroupHeadUNode()
	_ZN17NFAGroupHeadUNodeD1Ev @ 302
;	NFAGroupLoopUNode::findAllNodes(std::map<NFAUNode*, bool, std::less<NFAUNode*>, std::allocator<std::pair<NFAUNode* const, bool> > >&)
	_ZN17NFAGroupLoopUNode12findAllNodesERSt3mapIP8NFAUNodebSt4lessIS2_ESaISt4pairIKS2_bEEE @ 303
;	NFAGroupLoopUNode::NFAGroupLoopUNode(NFAUNode*, int, int, int, int)
	_ZN17NFAGroupLoopUNodeC1EP8NFAUNodeiiii @ 304
;	NFAGroupLoopUNode::NFAGroupLoopUNode(NFAUNode*, int, int, int, int)
	_ZN17NFAGroupLoopUNodeC2EP8NFAUNodeiiii @ 305
;	NFAGroupLoopUNode::~NFAGroupLoopUNode()
	_ZN17NFAGroupLoopUNodeD0Ev @ 306
;	NFAGroupLoopUNode::~NFAGroupLoopUNode()
	_ZN17NFAGroupLoopUNodeD1Ev @ 307
;	NFAGroupTailUNode::NFAGroupTailUNode(int)
	_ZN17NFAGroupTailUNodeC1Ei @ 308
;	NFAGroupTailUNode::NFAGroupTailUNode(int)
	_ZN17NFAGroupTailUNodeC2Ei @ 309
;	NFAGroupTailUNode::~NFAGroupTailUNode()
	_ZN17NFAGroupTailUNodeD0Ev @ 310
;	NFAGroupTailUNode::~NFAGroupTailUNode()
	_ZN17NFAGroupTailUNodeD1Ev @ 311
;	NFALookAheadUNode::findAllNodes(std::map<NFAUNode*, bool, std::less<NFAUNode*>, std::allocator<std::pair<NFAUNode* const, bool> > >&)
	_ZN17NFALookAheadUNode12findAllNodesERSt3mapIP8NFAUNodebSt4lessIS2_ESaISt4pairIKS2_bEEE @ 312
;	NFALookAheadUNode::NFALookAheadUNode(NFAUNode*, bool)
	_ZN17NFALookAheadUNodeC1EP8NFAUNodeb @ 313
;	NFALookAheadUNode::NFALookAheadUNode(NFAUNode*, bool)
	_ZN17NFALookAheadUNodeC2EP8NFAUNodeb @ 314
;	NFALookAheadUNode::~NFALookAheadUNode()
	_ZN17NFALookAheadUNodeD0Ev @ 315
;	NFALookAheadUNode::~NFALookAheadUNode()
	_ZN17NFALookAheadUNodeD1Ev @ 316
;	NFALookBehindNode::print(int)
	_ZN17NFALookBehindNode5printEi @ 317
;	NFALookBehindNode::NFALookBehindNode(std::string const&, bool)
	_ZN17NFALookBehindNodeC1ERKSsb @ 318
;	NFALookBehindNode::NFALookBehindNode(std::string const&, bool)
	_ZN17NFALookBehindNodeC2ERKSsb @ 319
;	NFALookBehindNode::~NFALookBehindNode()
	_ZN17NFALookBehindNodeD0Ev @ 320
;	NFALookBehindNode::~NFALookBehindNode()
	_ZN17NFALookBehindNodeD1Ev @ 321
;	NFAQuantifierNode::findAllNodes(std::map<NFANode*, bool, std::less<NFANode*>, std::allocator<std::pair<NFANode* const, bool> > >&)
	_ZN17NFAQuantifierNode12findAllNodesERSt3mapIP7NFANodebSt4lessIS2_ESaISt4pairIKS2_bEEE @ 322
;	NFAQuantifierNode::print(int)
	_ZN17NFAQuantifierNode5printEi @ 323
;	NFAQuantifierNode::NFAQuantifierNode(Pattern*, NFANode*, int, int)
	_ZN17NFAQuantifierNodeC1EP7PatternP7NFANodeii @ 324
;	NFAQuantifierNode::NFAQuantifierNode(Pattern*, NFANode*, int, int)
	_ZN17NFAQuantifierNodeC2EP7PatternP7NFANodeii @ 325
;	NFAQuantifierNode::~NFAQuantifierNode()
	_ZN17NFAQuantifierNodeD0Ev @ 326
;	NFAQuantifierNode::~NFAQuantifierNode()
	_ZN17NFAQuantifierNodeD1Ev @ 327
;	NFAQuantifierNode::~NFAQuantifierNode()
	_ZN17NFAQuantifierNodeD2Ev @ 328
;	NFAReferenceUNode::NFAReferenceUNode(int)
	_ZN17NFAReferenceUNodeC1Ei @ 329
;	NFAReferenceUNode::NFAReferenceUNode(int)
	_ZN17NFAReferenceUNodeC2Ei @ 330
;	NFAReferenceUNode::~NFAReferenceUNode()
	_ZN17NFAReferenceUNodeD0Ev @ 331
;	NFAReferenceUNode::~NFAReferenceUNode()
	_ZN17NFAReferenceUNodeD1Ev @ 332
;	TiXmlAttributeSet::Add(TiXmlAttribute*)
	_ZN17TiXmlAttributeSet3AddEP14TiXmlAttribute @ 333
;	TiXmlAttributeSet::Find(char const*)
	_ZN17TiXmlAttributeSet4FindEPKc @ 334
;	TiXmlAttributeSet::First()
	_ZN17TiXmlAttributeSet5FirstEv @ 335
;	TiXmlAttributeSet::Remove(TiXmlAttribute*)
	_ZN17TiXmlAttributeSet6RemoveEP14TiXmlAttribute @ 336
;	TiXmlAttributeSet::TiXmlAttributeSet()
	_ZN17TiXmlAttributeSetC1Ev @ 337
;	TiXmlAttributeSet::TiXmlAttributeSet()
	_ZN17TiXmlAttributeSetC2Ev @ 338
;	TiXmlAttributeSet::~TiXmlAttributeSet()
	_ZN17TiXmlAttributeSetD1Ev @ 339
;	TiXmlAttributeSet::~TiXmlAttributeSet()
	_ZN17TiXmlAttributeSetD2Ev @ 340
;	NFAEndOfInputUNode::NFAEndOfInputUNode(bool)
	_ZN18NFAEndOfInputUNodeC1Eb @ 341
;	NFAEndOfInputUNode::NFAEndOfInputUNode(bool)
	_ZN18NFAEndOfInputUNodeC2Eb @ 342
;	NFAEndOfInputUNode::~NFAEndOfInputUNode()
	_ZN18NFAEndOfInputUNodeD0Ev @ 343
;	NFAEndOfInputUNode::~NFAEndOfInputUNode()
	_ZN18NFAEndOfInputUNodeD1Ev @ 344
;	NFAEndOfMatchUNode::NFAEndOfMatchUNode()
	_ZN18NFAEndOfMatchUNodeC1Ev @ 345
;	NFAEndOfMatchUNode::NFAEndOfMatchUNode()
	_ZN18NFAEndOfMatchUNodeC2Ev @ 346
;	NFAEndOfMatchUNode::~NFAEndOfMatchUNode()
	_ZN18NFAEndOfMatchUNodeD0Ev @ 347
;	NFAEndOfMatchUNode::~NFAEndOfMatchUNode()
	_ZN18NFAEndOfMatchUNodeD1Ev @ 348
;	NFALookBehindUNode::NFALookBehindUNode(std::basic_string<wchar_t, std::char_traits<wchar_t>, std::allocator<wchar_t> > const&, bool)
	_ZN18NFALookBehindUNodeC1ERKSbIwSt11char_traitsIwESaIwEEb @ 349
;	NFALookBehindUNode::NFALookBehindUNode(std::basic_string<wchar_t, std::char_traits<wchar_t>, std::allocator<wchar_t> > const&, bool)
	_ZN18NFALookBehindUNodeC2ERKSbIwSt11char_traitsIwESaIwEEb @ 350
;	NFALookBehindUNode::~NFALookBehindUNode()
	_ZN18NFALookBehindUNodeD0Ev @ 351
;	NFALookBehindUNode::~NFALookBehindUNode()
	_ZN18NFALookBehindUNodeD1Ev @ 352
;	NFAQuantifierUNode::findAllNodes(std::map<NFAUNode*, bool, std::less<NFAUNode*>, std::allocator<std::pair<NFAUNode* const, bool> > >&)
	_ZN18NFAQuantifierUNode12findAllNodesERSt3mapIP8NFAUNodebSt4lessIS2_ESaISt4pairIKS2_bEEE @ 353
;	NFAQuantifierUNode::NFAQuantifierUNode(WCPattern*, NFAUNode*, int, int)
	_ZN18NFAQuantifierUNodeC1EP9WCPatternP8NFAUNodeii @ 354
;	NFAQuantifierUNode::NFAQuantifierUNode(WCPattern*, NFAUNode*, int, int)
	_ZN18NFAQuantifierUNodeC2EP9WCPatternP8NFAUNodeii @ 355
;	NFAQuantifierUNode::~NFAQuantifierUNode()
	_ZN18NFAQuantifierUNodeD0Ev @ 356
;	NFAQuantifierUNode::~NFAQuantifierUNode()
	_ZN18NFAQuantifierUNodeD1Ev @ 357
;	NFAQuantifierUNode::~NFAQuantifierUNode()
	_ZN18NFAQuantifierUNodeD2Ev @ 358
;	NFAStartOfLineNode::NFAStartOfLineNode()
	_ZN18NFAStartOfLineNodeC1Ev @ 359
;	NFAStartOfLineNode::NFAStartOfLineNode()
	_ZN18NFAStartOfLineNodeC2Ev @ 360
;	NFAStartOfLineNode::~NFAStartOfLineNode()
	_ZN18NFAStartOfLineNodeD0Ev @ 361
;	NFAStartOfLineNode::~NFAStartOfLineNode()
	_ZN18NFAStartOfLineNodeD1Ev @ 362
;	ContextMenuSettings::init(ContextMenuString&)
	_ZN19ContextMenuSettings4initER17ContextMenuString @ 363
;	ContextMenuSettings::begin()
	_ZN19ContextMenuSettings5beginEv @ 364
;	ContextMenuSettings::configDoc
	_ZN19ContextMenuSettings9configDocE @ 365 DATA
;	NFAStartOfInputNode::NFAStartOfInputNode()
	_ZN19NFAStartOfInputNodeC1Ev @ 366
;	NFAStartOfInputNode::NFAStartOfInputNode()
	_ZN19NFAStartOfInputNodeC2Ev @ 367
;	NFAStartOfInputNode::~NFAStartOfInputNode()
	_ZN19NFAStartOfInputNodeD0Ev @ 368
;	NFAStartOfInputNode::~NFAStartOfInputNode()
	_ZN19NFAStartOfInputNodeD1Ev @ 369
;	NFAStartOfLineUNode::NFAStartOfLineUNode()
	_ZN19NFAStartOfLineUNodeC1Ev @ 370
;	NFAStartOfLineUNode::NFAStartOfLineUNode()
	_ZN19NFAStartOfLineUNodeC2Ev @ 371
;	NFAStartOfLineUNode::~NFAStartOfLineUNode()
	_ZN19NFAStartOfLineUNodeD0Ev @ 372
;	NFAStartOfLineUNode::~NFAStartOfLineUNode()
	_ZN19NFAStartOfLineUNodeD1Ev @ 373
;	NFAWordBoundaryNode::print(int)
	_ZN19NFAWordBoundaryNode5printEi @ 374
;	NFAWordBoundaryNode::NFAWordBoundaryNode(bool)
	_ZN19NFAWordBoundaryNodeC1Eb @ 375
;	NFAWordBoundaryNode::NFAWordBoundaryNode(bool)
	_ZN19NFAWordBoundaryNodeC2Eb @ 376
;	NFAWordBoundaryNode::~NFAWordBoundaryNode()
	_ZN19NFAWordBoundaryNodeD0Ev @ 377
;	NFAWordBoundaryNode::~NFAWordBoundaryNode()
	_ZN19NFAWordBoundaryNodeD1Ev @ 378
;	NFAStartOfInputUNode::NFAStartOfInputUNode()
	_ZN20NFAStartOfInputUNodeC1Ev @ 379
;	NFAStartOfInputUNode::NFAStartOfInputUNode()
	_ZN20NFAStartOfInputUNodeC2Ev @ 380
;	NFAStartOfInputUNode::~NFAStartOfInputUNode()
	_ZN20NFAStartOfInputUNodeD0Ev @ 381
;	NFAStartOfInputUNode::~NFAStartOfInputUNode()
	_ZN20NFAStartOfInputUNodeD1Ev @ 382
;	NFAWordBoundaryUNode::NFAWordBoundaryUNode(bool)
	_ZN20NFAWordBoundaryUNodeC1Eb @ 383
;	NFAWordBoundaryUNode::NFAWordBoundaryUNode(bool)
	_ZN20NFAWordBoundaryUNodeC2Eb @ 384
;	NFAWordBoundaryUNode::~NFAWordBoundaryUNode()
	_ZN20NFAWordBoundaryUNodeD0Ev @ 385
;	NFAWordBoundaryUNode::~NFAWordBoundaryUNode()
	_ZN20NFAWordBoundaryUNodeD1Ev @ 386
	_ZN21CShellExtClassFactory10LockServerEi = _ZN21CShellExtClassFactory10LockServerEi@8 @ 387
	_ZN21CShellExtClassFactory10LockServerEi@8 @ 388
	_ZN21CShellExtClassFactory14CreateInstanceEP8IUnknownRK5_GUIDPPv = _ZN21CShellExtClassFactory14CreateInstanceEP8IUnknownRK5_GUIDPPv@16 @ 389
	_ZN21CShellExtClassFactory14CreateInstanceEP8IUnknownRK5_GUIDPPv@16 @ 390
	_ZN21CShellExtClassFactory14QueryInterfaceERK5_GUIDPPv = _ZN21CShellExtClassFactory14QueryInterfaceERK5_GUIDPPv@12 @ 391
	_ZN21CShellExtClassFactory14QueryInterfaceERK5_GUIDPPv@12 @ 392
	_ZN21CShellExtClassFactory6AddRefEv = _ZN21CShellExtClassFactory6AddRefEv@4 @ 393
	_ZN21CShellExtClassFactory6AddRefEv@4 @ 394
	_ZN21CShellExtClassFactory7ReleaseEv = _ZN21CShellExtClassFactory7ReleaseEv@4 @ 395
	_ZN21CShellExtClassFactory7ReleaseEv@4 @ 396
;	CShellExtClassFactory::CShellExtClassFactory()
	_ZN21CShellExtClassFactoryC1Ev @ 397
;	CShellExtClassFactory::CShellExtClassFactory()
	_ZN21CShellExtClassFactoryC2Ev @ 398
;	CShellExtClassFactory::~CShellExtClassFactory()
	_ZN21CShellExtClassFactoryD1Ev @ 399
;	CShellExtClassFactory::~CShellExtClassFactory()
	_ZN21CShellExtClassFactoryD2Ev @ 400
;	NFALazyQuantifierNode::NFALazyQuantifierNode(Pattern*, NFANode*, int, int)
	_ZN21NFALazyQuantifierNodeC1EP7PatternP7NFANodeii @ 401
;	NFALazyQuantifierNode::NFALazyQuantifierNode(Pattern*, NFANode*, int, int)
	_ZN21NFALazyQuantifierNodeC2EP7PatternP7NFANodeii @ 402
;	NFALazyQuantifierNode::~NFALazyQuantifierNode()
	_ZN21NFALazyQuantifierNodeD0Ev @ 403
;	NFALazyQuantifierNode::~NFALazyQuantifierNode()
	_ZN21NFALazyQuantifierNodeD1Ev @ 404
;	NFALazyQuantifierUNode::NFALazyQuantifierUNode(WCPattern*, NFAUNode*, int, int)
	_ZN22NFALazyQuantifierUNodeC1EP9WCPatternP8NFAUNodeii @ 405
;	NFALazyQuantifierUNode::NFALazyQuantifierUNode(WCPattern*, NFAUNode*, int, int)
	_ZN22NFALazyQuantifierUNodeC2EP9WCPatternP8NFAUNodeii @ 406
;	NFALazyQuantifierUNode::~NFALazyQuantifierUNode()
	_ZN22NFALazyQuantifierUNodeD0Ev @ 407
;	NFALazyQuantifierUNode::~NFALazyQuantifierUNode()
	_ZN22NFALazyQuantifierUNodeD1Ev @ 408
;	NFAGreedyQuantifierNode::NFAGreedyQuantifierNode(Pattern*, NFANode*, int, int)
	_ZN23NFAGreedyQuantifierNodeC1EP7PatternP7NFANodeii @ 409
;	NFAGreedyQuantifierNode::NFAGreedyQuantifierNode(Pattern*, NFANode*, int, int)
	_ZN23NFAGreedyQuantifierNodeC2EP7PatternP7NFANodeii @ 410
;	NFAGreedyQuantifierNode::~NFAGreedyQuantifierNode()
	_ZN23NFAGreedyQuantifierNodeD0Ev @ 411
;	NFAGreedyQuantifierNode::~NFAGreedyQuantifierNode()
	_ZN23NFAGreedyQuantifierNodeD1Ev @ 412
;	ContextMenuItemsIterator::end()
	_ZN24ContextMenuItemsIterator3endEv @ 413
;	ContextMenuItemsIterator::item()
	_ZN24ContextMenuItemsIterator4itemEv @ 414
;	ContextMenuItemsIterator::ContextMenuItemsIterator()
	_ZN24ContextMenuItemsIteratorC1Ev @ 415
;	ContextMenuItemsIterator::operator+(int)
	_ZN24ContextMenuItemsIteratorplEi @ 416
;	ContextMenuItemsIterator::operator++(int)
	_ZN24ContextMenuItemsIteratorppEi @ 417
;	NFAGreedyQuantifierUNode::NFAGreedyQuantifierUNode(WCPattern*, NFAUNode*, int, int)
	_ZN24NFAGreedyQuantifierUNodeC1EP9WCPatternP8NFAUNodeii @ 418
;	NFAGreedyQuantifierUNode::NFAGreedyQuantifierUNode(WCPattern*, NFAUNode*, int, int)
	_ZN24NFAGreedyQuantifierUNodeC2EP9WCPatternP8NFAUNodeii @ 419
;	NFAGreedyQuantifierUNode::~NFAGreedyQuantifierUNode()
	_ZN24NFAGreedyQuantifierUNodeD0Ev @ 420
;	NFAGreedyQuantifierUNode::~NFAGreedyQuantifierUNode()
	_ZN24NFAGreedyQuantifierUNodeD1Ev @ 421
;	NFAGroupLoopPrologueNode::print(int)
	_ZN24NFAGroupLoopPrologueNode5printEi @ 422
;	NFAGroupLoopPrologueNode::NFAGroupLoopPrologueNode(int)
	_ZN24NFAGroupLoopPrologueNodeC1Ei @ 423
;	NFAGroupLoopPrologueNode::NFAGroupLoopPrologueNode(int)
	_ZN24NFAGroupLoopPrologueNodeC2Ei @ 424
;	NFAGroupLoopPrologueNode::~NFAGroupLoopPrologueNode()
	_ZN24NFAGroupLoopPrologueNodeD0Ev @ 425
;	NFAGroupLoopPrologueNode::~NFAGroupLoopPrologueNode()
	_ZN24NFAGroupLoopPrologueNodeD1Ev @ 426
;	NFAGroupLoopPrologueUNode::NFAGroupLoopPrologueUNode(int)
	_ZN25NFAGroupLoopPrologueUNodeC1Ei @ 427
;	NFAGroupLoopPrologueUNode::NFAGroupLoopPrologueUNode(int)
	_ZN25NFAGroupLoopPrologueUNodeC2Ei @ 428
;	NFAGroupLoopPrologueUNode::~NFAGroupLoopPrologueUNode()
	_ZN25NFAGroupLoopPrologueUNodeD0Ev @ 429
;	NFAGroupLoopPrologueUNode::~NFAGroupLoopPrologueUNode()
	_ZN25NFAGroupLoopPrologueUNodeD1Ev @ 430
;	NFAPossessiveQuantifierNode::NFAPossessiveQuantifierNode(Pattern*, NFANode*, int, int)
	_ZN27NFAPossessiveQuantifierNodeC1EP7PatternP7NFANodeii @ 431
;	NFAPossessiveQuantifierNode::NFAPossessiveQuantifierNode(Pattern*, NFANode*, int, int)
	_ZN27NFAPossessiveQuantifierNodeC2EP7PatternP7NFANodeii @ 432
;	NFAPossessiveQuantifierNode::~NFAPossessiveQuantifierNode()
	_ZN27NFAPossessiveQuantifierNodeD0Ev @ 433
;	NFAPossessiveQuantifierNode::~NFAPossessiveQuantifierNode()
	_ZN27NFAPossessiveQuantifierNodeD1Ev @ 434
;	NFAPossessiveQuantifierUNode::NFAPossessiveQuantifierUNode(WCPattern*, NFAUNode*, int, int)
	_ZN28NFAPossessiveQuantifierUNodeC1EP9WCPatternP8NFAUNodeii @ 435
;	NFAPossessiveQuantifierUNode::NFAPossessiveQuantifierUNode(WCPattern*, NFAUNode*, int, int)
	_ZN28NFAPossessiveQuantifierUNodeC2EP9WCPatternP8NFAUNodeii @ 436
;	NFAPossessiveQuantifierUNode::~NFAPossessiveQuantifierUNode()
	_ZN28NFAPossessiveQuantifierUNodeD0Ev @ 437
;	NFAPossessiveQuantifierUNode::~NFAPossessiveQuantifierUNode()
	_ZN28NFAPossessiveQuantifierUNodeD1Ev @ 438
;	Matcher::clearGroups()
	_ZN7Matcher11clearGroupsEv @ 439
;	Matcher::findNextMatch()
	_ZN7Matcher13findNextMatchEv @ 440
;	Matcher::findFirstMatch()
	_ZN7Matcher14findFirstMatchEv @ 441
;	Matcher::replaceWithGroups(std::string const&)
	_ZN7Matcher17replaceWithGroupsERKSs @ 442
;	Matcher::MATCH_ENTIRE_STRING
	_ZN7Matcher19MATCH_ENTIRE_STRINGE @ 443 DATA
;	Matcher::reset()
	_ZN7Matcher5resetEv @ 444
;	Matcher::findAll()
	_ZN7Matcher7findAllEv @ 445
;	Matcher::matches()
	_ZN7Matcher7matchesEv @ 446
;	Matcher::setString(std::string const&)
	_ZN7Matcher9setStringERKSs @ 447
;	Matcher::Matcher(Pattern*, std::string const&)
	_ZN7MatcherC1EP7PatternRKSs @ 448
;	Matcher::Matcher(Pattern*, std::string const&)
	_ZN7MatcherC2EP7PatternRKSs @ 449
;	Matcher::~Matcher()
	_ZN7MatcherD1Ev @ 450
;	Matcher::~Matcher()
	_ZN7MatcherD2Ev @ 451
;	NFANode::findAllNodes(std::map<NFANode*, bool, std::less<NFANode*>, std::allocator<std::pair<NFANode* const, bool> > >&)
	_ZN7NFANode12findAllNodesERSt3mapIPS_bSt4lessIS1_ESaISt4pairIKS1_bEEE @ 452
;	NFANode::print(int)
	_ZN7NFANode5printEi @ 453
;	NFANode::NFANode()
	_ZN7NFANodeC1Ev @ 454
;	NFANode::NFANode()
	_ZN7NFANodeC2Ev @ 455
;	NFANode::~NFANode()
	_ZN7NFANodeD0Ev @ 456
;	NFANode::~NFANode()
	_ZN7NFANodeD1Ev @ 457
;	NFANode::~NFANode()
	_ZN7NFANodeD2Ev @ 458
;	Pattern::MAX_QMATCH
	_ZN7Pattern10MAX_QMATCHE @ 459 DATA
;	Pattern::MIN_QMATCH
	_ZN7Pattern10MIN_QMATCHE @ 460 DATA
;	Pattern::parseClass()
	_ZN7Pattern10parseClassEv @ 461
;	Pattern::parseOctal()
	_ZN7Pattern10parseOctalEv @ 462
;	Pattern::parsePosix()
	_ZN7Pattern10parsePosixEv @ 463
;	Pattern::parseQuote()
	_ZN7Pattern10parseQuoteEv @ 464
;	Pattern::raiseError()
	_ZN7Pattern10raiseErrorEv @ 465
;	Pattern::parseBehind(bool, NFANode**)
	_ZN7Pattern11parseBehindEbPP7NFANode @ 466
;	Pattern::parseEscape(bool&, bool&)
	_ZN7Pattern11parseEscapeERbS0_ @ 467
;	Pattern::findNthMatch(std::string const&, std::string const&, int, unsigned long)
	_ZN7Pattern12findNthMatchERKSsS1_im @ 468
;	Pattern::parseBackref()
	_ZN7Pattern12parseBackrefEv @ 469
;	Pattern::registerNode(NFANode*)
	_ZN7Pattern12registerNodeEP7NFANode @ 470
;	Pattern::createMatcher(std::string const&)
	_ZN7Pattern13createMatcherERKSs @ 471
;	Pattern::quantifyCurly(int&, int&)
	_ZN7Pattern13quantifyCurlyERiS0_ @ 472
;	Pattern::quantifyGroup(NFANode*, NFANode*, int)
	_ZN7Pattern13quantifyGroupEP7NFANodeS1_i @ 473
;	Pattern::UNIX_LINE_MODE
	_ZN7Pattern14UNIX_LINE_MODEE @ 474 DATA
;	Pattern::compileAndKeep(std::string const&, unsigned long)
	_ZN7Pattern14compileAndKeepERKSsm @ 475
;	Pattern::DOT_MATCHES_ALL
	_ZN7Pattern15DOT_MATCHES_ALLE @ 476 DATA
;	Pattern::registerPattern(std::string const&, std::string const&, unsigned long)
	_ZN7Pattern15registerPatternERKSsS1_m @ 477
;	Pattern::CASE_INSENSITIVE
	_ZN7Pattern16CASE_INSENSITIVEE @ 478 DATA
;	Pattern::compiledPatterns
	_ZN7Pattern16compiledPatternsE @ 479 DATA
;	Pattern::clearPatternCache()
	_ZN7Pattern17clearPatternCacheEv @ 480
;	Pattern::MULTILINE_MATCHING
	_ZN7Pattern18MULTILINE_MATCHINGE @ 481 DATA
;	Pattern::registeredPatterns
	_ZN7Pattern18registeredPatternsE @ 482 DATA
;	Pattern::unregisterPatterns()
	_ZN7Pattern18unregisterPatternsEv @ 483
;	Pattern::parseRegisteredPattern(NFANode**)
	_ZN7Pattern22parseRegisteredPatternEPP7NFANode @ 484
;	Pattern::parse(bool, bool, NFANode**, int, bool)
	_ZN7Pattern5parseEbbPP7NFANodeib @ 485
;	Pattern::print()
	_ZN7Pattern5printEv @ 486
;	Pattern::split(std::string const&, std::string const&, bool, unsigned long, unsigned long)
	_ZN7Pattern5splitERKSsS1_bmm @ 487
;	Pattern::split(std::string const&, bool, unsigned long)
	_ZN7Pattern5splitERKSsbm @ 488
;	Pattern::getInt(int, int)
	_ZN7Pattern6getIntEii @ 489
;	Pattern::LITERAL
	_ZN7Pattern7LITERALE @ 490 DATA
;	Pattern::compile(std::string const&, unsigned long)
	_ZN7Pattern7compileERKSsm @ 491
;	Pattern::findAll(std::string const&)
	_ZN7Pattern7findAllERKSs @ 492
;	Pattern::findAll(std::string const&, std::string const&, unsigned long)
	_ZN7Pattern7findAllERKSsS1_m @ 493
;	Pattern::matches(std::string const&)
	_ZN7Pattern7matchesERKSs @ 494
;	Pattern::matches(std::string const&, std::string const&, unsigned long)
	_ZN7Pattern7matchesERKSsS1_m @ 495
;	Pattern::replace(std::string const&, std::string const&)
	_ZN7Pattern7replaceERKSsS1_ @ 496
;	Pattern::replace(std::string const&, std::string const&, std::string const&, unsigned long)
	_ZN7Pattern7replaceERKSsS1_S1_m @ 497
;	Pattern::parseHex()
	_ZN7Pattern8parseHexEv @ 498
;	Pattern::quantify(NFANode*)
	_ZN7Pattern8quantifyEP7NFANode @ 499
;	Pattern::Pattern(std::string const&)
	_ZN7PatternC1ERKSs @ 500
;	Pattern::Pattern(std::string const&)
	_ZN7PatternC2ERKSs @ 501
;	Pattern::~Pattern()
	_ZN7PatternD1Ev @ 502
;	Pattern::~Pattern()
	_ZN7PatternD2Ev @ 503
;	IUnknown::IUnknown()
	_ZN8IUnknownC2Ev @ 504
;	NFAUNode::findAllNodes(std::map<NFAUNode*, bool, std::less<NFAUNode*>, std::allocator<std::pair<NFAUNode* const, bool> > >&)
	_ZN8NFAUNode12findAllNodesERSt3mapIPS_bSt4lessIS1_ESaISt4pairIKS1_bEEE @ 505
;	NFAUNode::NFAUNode()
	_ZN8NFAUNodeC1Ev @ 506
;	NFAUNode::NFAUNode()
	_ZN8NFAUNodeC2Ev @ 507
;	NFAUNode::~NFAUNode()
	_ZN8NFAUNodeD0Ev @ 508
;	NFAUNode::~NFAUNode()
	_ZN8NFAUNodeD1Ev @ 509
;	NFAUNode::~NFAUNode()
	_ZN8NFAUNodeD2Ev @ 510
	_ZN9CShellExt10InitializeEPK11_ITEMIDLISTP11IDataObjectP6HKEY__ = _ZN9CShellExt10InitializeEPK11_ITEMIDLISTP11IDataObjectP6HKEY__@16 @ 511
	_ZN9CShellExt10InitializeEPK11_ITEMIDLISTP11IDataObjectP6HKEY__@16 @ 512
	_ZN9CShellExt13InvokeCommandEP20_CMInvokeCommandInfo = _ZN9CShellExt13InvokeCommandEP20_CMInvokeCommandInfo@8 @ 513
	_ZN9CShellExt13InvokeCommandEP20_CMInvokeCommandInfo@8 @ 514
	_ZN9CShellExt13InvokeProgramEP6HWND__PKcS3_S3_i = _ZN9CShellExt13InvokeProgramEP6HWND__PKcS3_S3_i@24 @ 515
	_ZN9CShellExt13InvokeProgramEP6HWND__PKcS3_S3_i@24 @ 516
	_ZN9CShellExt14QueryInterfaceERK5_GUIDPPv = _ZN9CShellExt14QueryInterfaceERK5_GUIDPPv@12 @ 517
	_ZN9CShellExt14QueryInterfaceERK5_GUIDPPv@12 @ 518
	_ZN9CShellExt16GetCommandStringEjjPjPcj = _ZN9CShellExt16GetCommandStringEjjPjPcj@24 @ 519
	_ZN9CShellExt16GetCommandStringEjjPjPcj@24 @ 520
	_ZN9CShellExt16QueryContextMenuEP7HMENU__jjjj = _ZN9CShellExt16QueryContextMenuEP7HMENU__jjjj@24 @ 521
	_ZN9CShellExt16QueryContextMenuEP7HMENU__jjjj@24 @ 522
	_ZN9CShellExt6AddRefEv = _ZN9CShellExt6AddRefEv@4 @ 523
	_ZN9CShellExt6AddRefEv@4 @ 524
	_ZN9CShellExt7ReleaseEv = _ZN9CShellExt7ReleaseEv@4 @ 525
	_ZN9CShellExt7ReleaseEv@4 @ 526
;	CShellExt::CShellExt()
	_ZN9CShellExtC1Ev @ 527
;	CShellExt::CShellExt()
	_ZN9CShellExtC2Ev @ 528
;	CShellExt::~CShellExt()
	_ZN9CShellExtD1Ev @ 529
;	CShellExt::~CShellExt()
	_ZN9CShellExtD2Ev @ 530
;	NFAOrNode::findAllNodes(std::map<NFANode*, bool, std::less<NFANode*>, std::allocator<std::pair<NFANode* const, bool> > >&)
	_ZN9NFAOrNode12findAllNodesERSt3mapIP7NFANodebSt4lessIS2_ESaISt4pairIKS2_bEEE @ 531
;	NFAOrNode::print(int)
	_ZN9NFAOrNode5printEi @ 532
;	NFAOrNode::NFAOrNode(NFANode*, NFANode*)
	_ZN9NFAOrNodeC1EP7NFANodeS1_ @ 533
;	NFAOrNode::NFAOrNode(NFANode*, NFANode*)
	_ZN9NFAOrNodeC2EP7NFANodeS1_ @ 534
;	NFAOrNode::~NFAOrNode()
	_ZN9NFAOrNodeD0Ev @ 535
;	NFAOrNode::~NFAOrNode()
	_ZN9NFAOrNodeD1Ev @ 536
;	TiXmlBase::IsAlphaNum(unsigned char, TiXmlEncoding)
	_ZN9TiXmlBase10IsAlphaNumEh13TiXmlEncoding @ 537
;	TiXmlBase::StringEqual(char const*, char const*, bool, TiXmlEncoding)
	_ZN9TiXmlBase11StringEqualEPKcS1_b13TiXmlEncoding @ 538
;	TiXmlBase::errorString
	_ZN9TiXmlBase11errorStringE @ 539 DATA
;	TiXmlBase::EncodeString(TiXmlString const&, TiXmlString*)
	_ZN9TiXmlBase12EncodeStringERK11TiXmlStringPS0_ @ 540
;	TiXmlBase::IsWhiteSpace(char)
	_ZN9TiXmlBase12IsWhiteSpaceEc @ 541
;	TiXmlBase::utf8ByteTable
	_ZN9TiXmlBase13utf8ByteTableE @ 542 DATA
;	TiXmlBase::SkipWhiteSpace(char const*, TiXmlEncoding)
	_ZN9TiXmlBase14SkipWhiteSpaceEPKc13TiXmlEncoding @ 543
;	TiXmlBase::ConvertUTF32ToUTF8(unsigned long, char*, int*)
	_ZN9TiXmlBase18ConvertUTF32ToUTF8EmPcPi @ 544
;	TiXmlBase::condenseWhiteSpace
	_ZN9TiXmlBase18condenseWhiteSpaceE @ 545 DATA
;	TiXmlBase::IsWhiteSpaceCondensed()
	_ZN9TiXmlBase21IsWhiteSpaceCondensedEv @ 546
;	TiXmlBase::entity
	_ZN9TiXmlBase6entityE @ 547 DATA
;	TiXmlBase::GetChar(char const*, char*, int*, TiXmlEncoding)
	_ZN9TiXmlBase7GetCharEPKcPcPi13TiXmlEncoding @ 548
;	TiXmlBase::IsAlpha(unsigned char, TiXmlEncoding)
	_ZN9TiXmlBase7IsAlphaEh13TiXmlEncoding @ 549
;	TiXmlBase::ToLower(int, TiXmlEncoding)
	_ZN9TiXmlBase7ToLowerEi13TiXmlEncoding @ 550
;	TiXmlBase::ReadName(char const*, TiXmlString*, TiXmlEncoding)
	_ZN9TiXmlBase8ReadNameEPKcP11TiXmlString13TiXmlEncoding @ 551
;	TiXmlBase::ReadText(char const*, TiXmlString*, bool, char const*, bool, TiXmlEncoding)
	_ZN9TiXmlBase8ReadTextEPKcP11TiXmlStringbS1_b13TiXmlEncoding @ 552
;	TiXmlBase::GetEntity(char const*, char*, int*, TiXmlEncoding)
	_ZN9TiXmlBase9GetEntityEPKcPcPi13TiXmlEncoding @ 553
;	TiXmlBase::TiXmlBase()
	_ZN9TiXmlBaseC2Ev @ 554
;	TiXmlBase::~TiXmlBase()
	_ZN9TiXmlBaseD0Ev @ 555
;	TiXmlBase::~TiXmlBase()
	_ZN9TiXmlBaseD1Ev @ 556
;	TiXmlBase::~TiXmlBase()
	_ZN9TiXmlBaseD2Ev @ 557
;	TiXmlNode::FirstChild(char const*)
	_ZN9TiXmlNode10FirstChildEPKc @ 558
;	TiXmlNode::FirstChild()
	_ZN9TiXmlNode10FirstChildEv @ 559
;	TiXmlNode::ToDocument()
	_ZN9TiXmlNode10ToDocumentEv @ 560
;	TiXmlNode::GetDocument()
	_ZN9TiXmlNode11GetDocumentEv @ 561
;	TiXmlNode::NextSibling(char const*)
	_ZN9TiXmlNode11NextSiblingEPKc @ 562
;	TiXmlNode::NextSibling()
	_ZN9TiXmlNode11NextSiblingEv @ 563
;	TiXmlNode::RemoveChild(TiXmlNode*)
	_ZN9TiXmlNode11RemoveChildEPS_ @ 564
;	TiXmlNode::LinkEndChild(TiXmlNode*)
	_ZN9TiXmlNode12LinkEndChildEPS_ @ 565
;	TiXmlNode::ReplaceChild(TiXmlNode*, TiXmlNode const&)
	_ZN9TiXmlNode12ReplaceChildEPS_RKS_ @ 566
;	TiXmlNode::ToDeclaration()
	_ZN9TiXmlNode13ToDeclarationEv @ 567
;	TiXmlNode::InsertEndChild(TiXmlNode const&)
	_ZN9TiXmlNode14InsertEndChildERKS_ @ 568
;	TiXmlNode::InsertAfterChild(TiXmlNode*, TiXmlNode const&)
	_ZN9TiXmlNode16InsertAfterChildEPS_RKS_ @ 569
;	TiXmlNode::FirstChildElement(char const*)
	_ZN9TiXmlNode17FirstChildElementEPKc @ 570
;	TiXmlNode::FirstChildElement()
	_ZN9TiXmlNode17FirstChildElementEv @ 571
;	TiXmlNode::InsertBeforeChild(TiXmlNode*, TiXmlNode const&)
	_ZN9TiXmlNode17InsertBeforeChildEPS_RKS_ @ 572
;	TiXmlNode::NextSiblingElement(char const*)
	_ZN9TiXmlNode18NextSiblingElementEPKc @ 573
;	TiXmlNode::NextSiblingElement()
	_ZN9TiXmlNode18NextSiblingElementEv @ 574
;	TiXmlNode::Clear()
	_ZN9TiXmlNode5ClearEv @ 575
;	TiXmlNode::ToText()
	_ZN9TiXmlNode6ToTextEv @ 576
;	TiXmlNode::Identify(char const*, TiXmlEncoding)
	_ZN9TiXmlNode8IdentifyEPKc13TiXmlEncoding @ 577
;	TiXmlNode::SetValue(char const*)
	_ZN9TiXmlNode8SetValueEPKc @ 578
;	TiXmlNode::ToComment()
	_ZN9TiXmlNode9ToCommentEv @ 579
;	TiXmlNode::ToElement()
	_ZN9TiXmlNode9ToElementEv @ 580
;	TiXmlNode::ToUnknown()
	_ZN9TiXmlNode9ToUnknownEv @ 581
;	TiXmlNode::TiXmlNode(TiXmlNode::NodeType)
	_ZN9TiXmlNodeC1ENS_8NodeTypeE @ 582
;	TiXmlNode::TiXmlNode(TiXmlNode::NodeType)
	_ZN9TiXmlNodeC2ENS_8NodeTypeE @ 583
;	TiXmlNode::~TiXmlNode()
	_ZN9TiXmlNodeD0Ev @ 584
;	TiXmlNode::~TiXmlNode()
	_ZN9TiXmlNodeD1Ev @ 585
;	TiXmlNode::~TiXmlNode()
	_ZN9TiXmlNodeD2Ev @ 586
;	TiXmlText::Parse(char const*, TiXmlParsingData*, TiXmlEncoding)
	_ZN9TiXmlText5ParseEPKcP16TiXmlParsingData13TiXmlEncoding @ 587
;	TiXmlText::ToText()
	_ZN9TiXmlText6ToTextEv @ 588
;	TiXmlText::SetCDATA(bool)
	_ZN9TiXmlText8SetCDATAEb @ 589
;	TiXmlText::TiXmlText(char const*)
	_ZN9TiXmlTextC1EPKc @ 590
;	TiXmlText::~TiXmlText()
	_ZN9TiXmlTextD0Ev @ 591
;	TiXmlText::~TiXmlText()
	_ZN9TiXmlTextD1Ev @ 592
;	WCMatcher::clearGroups()
	_ZN9WCMatcher11clearGroupsEv @ 593
;	WCMatcher::findNextMatch()
	_ZN9WCMatcher13findNextMatchEv @ 594
;	WCMatcher::findFirstMatch()
	_ZN9WCMatcher14findFirstMatchEv @ 595
;	WCMatcher::replaceWithGroups(std::basic_string<wchar_t, std::char_traits<wchar_t>, std::allocator<wchar_t> > const&)
	_ZN9WCMatcher17replaceWithGroupsERKSbIwSt11char_traitsIwESaIwEE @ 596
;	WCMatcher::MATCH_ENTIRE_STRING
	_ZN9WCMatcher19MATCH_ENTIRE_STRINGE @ 597 DATA
;	WCMatcher::reset()
	_ZN9WCMatcher5resetEv @ 598
;	WCMatcher::findAll()
	_ZN9WCMatcher7findAllEv @ 599
;	WCMatcher::matches()
	_ZN9WCMatcher7matchesEv @ 600
;	WCMatcher::setString(std::basic_string<wchar_t, std::char_traits<wchar_t>, std::allocator<wchar_t> > const&)
	_ZN9WCMatcher9setStringERKSbIwSt11char_traitsIwESaIwEE @ 601
;	WCMatcher::WCMatcher(WCPattern*, std::basic_string<wchar_t, std::char_traits<wchar_t>, std::allocator<wchar_t> > const&)
	_ZN9WCMatcherC1EP9WCPatternRKSbIwSt11char_traitsIwESaIwEE @ 602
;	WCMatcher::WCMatcher(WCPattern*, std::basic_string<wchar_t, std::char_traits<wchar_t>, std::allocator<wchar_t> > const&)
	_ZN9WCMatcherC2EP9WCPatternRKSbIwSt11char_traitsIwESaIwEE @ 603
;	WCMatcher::~WCMatcher()
	_ZN9WCMatcherD1Ev @ 604
;	WCMatcher::~WCMatcher()
	_ZN9WCMatcherD2Ev @ 605
;	WCPattern::MAX_QMATCH
	_ZN9WCPattern10MAX_QMATCHE @ 606 DATA
;	WCPattern::MIN_QMATCH
	_ZN9WCPattern10MIN_QMATCHE @ 607 DATA
;	WCPattern::parseClass()
	_ZN9WCPattern10parseClassEv @ 608
;	WCPattern::parseOctal()
	_ZN9WCPattern10parseOctalEv @ 609
;	WCPattern::parsePosix()
	_ZN9WCPattern10parsePosixEv @ 610
;	WCPattern::parseQuote()
	_ZN9WCPattern10parseQuoteEv @ 611
;	WCPattern::raiseError()
	_ZN9WCPattern10raiseErrorEv @ 612
;	WCPattern::parseBehind(bool, NFAUNode**)
	_ZN9WCPattern11parseBehindEbPP8NFAUNode @ 613
;	WCPattern::parseEscape(bool&, bool&)
	_ZN9WCPattern11parseEscapeERbS0_ @ 614
;	WCPattern::findNthMatch(std::basic_string<wchar_t, std::char_traits<wchar_t>, std::allocator<wchar_t> > const&, std::basic_string<wchar_t, std::char_traits<wchar_t>, std::allocator<wchar_t> > const&, int, unsigned long)
	_ZN9WCPattern12findNthMatchERKSbIwSt11char_traitsIwESaIwEES5_im @ 615
;	WCPattern::parseBackref()
	_ZN9WCPattern12parseBackrefEv @ 616
;	WCPattern::registerNode(NFAUNode*)
	_ZN9WCPattern12registerNodeEP8NFAUNode @ 617
;	WCPattern::quantifyCurly(int&, int&)
	_ZN9WCPattern13quantifyCurlyERiS0_ @ 618
;	WCPattern::quantifyGroup(NFAUNode*, NFAUNode*, int)
	_ZN9WCPattern13quantifyGroupEP8NFAUNodeS1_i @ 619
;	WCPattern::UNIX_LINE_MODE
	_ZN9WCPattern14UNIX_LINE_MODEE @ 620 DATA
;	WCPattern::compileAndKeep(std::basic_string<wchar_t, std::char_traits<wchar_t>, std::allocator<wchar_t> > const&, unsigned long)
	_ZN9WCPattern14compileAndKeepERKSbIwSt11char_traitsIwESaIwEEm @ 621
;	WCPattern::DOT_MATCHES_ALL
	_ZN9WCPattern15DOT_MATCHES_ALLE @ 622 DATA
;	WCPattern::createWCMatcher(std::basic_string<wchar_t, std::char_traits<wchar_t>, std::allocator<wchar_t> > const&)
	_ZN9WCPattern15createWCMatcherERKSbIwSt11char_traitsIwESaIwEE @ 623
;	WCPattern::CASE_INSENSITIVE
	_ZN9WCPattern16CASE_INSENSITIVEE @ 624 DATA
;	WCPattern::registerWCPattern(std::basic_string<wchar_t, std::char_traits<wchar_t>, std::allocator<wchar_t> > const&, std::basic_string<wchar_t, std::char_traits<wchar_t>, std::allocator<wchar_t> > const&, unsigned long)
	_ZN9WCPattern17registerWCPatternERKSbIwSt11char_traitsIwESaIwEES5_m @ 625
;	WCPattern::MULTILINE_MATCHING
	_ZN9WCPattern18MULTILINE_MATCHINGE @ 626 DATA
;	WCPattern::compiledWCPatterns
	_ZN9WCPattern18compiledWCPatternsE @ 627 DATA
;	WCPattern::clearWCPatternCache()
	_ZN9WCPattern19clearWCPatternCacheEv @ 628
;	WCPattern::registeredWCPatterns
	_ZN9WCPattern20registeredWCPatternsE @ 629 DATA
;	WCPattern::unregisterWCPatterns()
	_ZN9WCPattern20unregisterWCPatternsEv @ 630
;	WCPattern::parseRegisteredWCPattern(NFAUNode**)
	_ZN9WCPattern24parseRegisteredWCPatternEPP8NFAUNode @ 631
;	WCPattern::parse(bool, bool, NFAUNode**)
	_ZN9WCPattern5parseEbbPP8NFAUNode @ 632
;	WCPattern::split(std::basic_string<wchar_t, std::char_traits<wchar_t>, std::allocator<wchar_t> > const&, std::basic_string<wchar_t, std::char_traits<wchar_t>, std::allocator<wchar_t> > const&, bool, unsigned long, unsigned long)
	_ZN9WCPattern5splitERKSbIwSt11char_traitsIwESaIwEES5_bmm @ 633
;	WCPattern::split(std::basic_string<wchar_t, std::char_traits<wchar_t>, std::allocator<wchar_t> > const&, bool, unsigned long)
	_ZN9WCPattern5splitERKSbIwSt11char_traitsIwESaIwEEbm @ 634
;	WCPattern::getInt(int, int)
	_ZN9WCPattern6getIntEii @ 635
;	WCPattern::LITERAL
	_ZN9WCPattern7LITERALE @ 636 DATA
;	WCPattern::compile(std::basic_string<wchar_t, std::char_traits<wchar_t>, std::allocator<wchar_t> > const&, unsigned long)
	_ZN9WCPattern7compileERKSbIwSt11char_traitsIwESaIwEEm @ 637
;	WCPattern::findAll(std::basic_string<wchar_t, std::char_traits<wchar_t>, std::allocator<wchar_t> > const&)
	_ZN9WCPattern7findAllERKSbIwSt11char_traitsIwESaIwEE @ 638
;	WCPattern::findAll(std::basic_string<wchar_t, std::char_traits<wchar_t>, std::allocator<wchar_t> > const&, std::basic_string<wchar_t, std::char_traits<wchar_t>, std::allocator<wchar_t> > const&, unsigned long)
	_ZN9WCPattern7findAllERKSbIwSt11char_traitsIwESaIwEES5_m @ 639
;	WCPattern::matches(std::basic_string<wchar_t, std::char_traits<wchar_t>, std::allocator<wchar_t> > const&)
	_ZN9WCPattern7matchesERKSbIwSt11char_traitsIwESaIwEE @ 640
;	WCPattern::matches(std::basic_string<wchar_t, std::char_traits<wchar_t>, std::allocator<wchar_t> > const&, std::basic_string<wchar_t, std::char_traits<wchar_t>, std::allocator<wchar_t> > const&, unsigned long)
	_ZN9WCPattern7matchesERKSbIwSt11char_traitsIwESaIwEES5_m @ 641
;	WCPattern::replace(std::basic_string<wchar_t, std::char_traits<wchar_t>, std::allocator<wchar_t> > const&, std::basic_string<wchar_t, std::char_traits<wchar_t>, std::allocator<wchar_t> > const&)
	_ZN9WCPattern7replaceERKSbIwSt11char_traitsIwESaIwEES5_ @ 642
;	WCPattern::replace(std::basic_string<wchar_t, std::char_traits<wchar_t>, std::allocator<wchar_t> > const&, std::basic_string<wchar_t, std::char_traits<wchar_t>, std::allocator<wchar_t> > const&, std::basic_string<wchar_t, std::char_traits<wchar_t>, std::allocator<wchar_t> > const&, unsigned long)
	_ZN9WCPattern7replaceERKSbIwSt11char_traitsIwESaIwEES5_S5_m @ 643
;	WCPattern::parseHex()
	_ZN9WCPattern8parseHexEv @ 644
;	WCPattern::quantify(NFAUNode*)
	_ZN9WCPattern8quantifyEP8NFAUNode @ 645
;	WCPattern::WCPattern(std::basic_string<wchar_t, std::char_traits<wchar_t>, std::allocator<wchar_t> > const&)
	_ZN9WCPatternC1ERKSbIwSt11char_traitsIwESaIwEE @ 646
;	WCPattern::WCPattern(std::basic_string<wchar_t, std::char_traits<wchar_t>, std::allocator<wchar_t> > const&)
	_ZN9WCPatternC2ERKSbIwSt11char_traitsIwESaIwEE @ 647
;	WCPattern::~WCPattern()
	_ZN9WCPatternD1Ev @ 648
;	WCPattern::~WCPattern()
	_ZN9WCPatternD2Ev @ 649
;	__gnu_cxx::new_allocator<std::basic_string<wchar_t, std::char_traits<wchar_t>, std::allocator<wchar_t> > >::deallocate(std::basic_string<wchar_t, std::char_traits<wchar_t>, std::allocator<wchar_t> >*, unsigned int)
	_ZN9__gnu_cxx13new_allocatorISbIwSt11char_traitsIwESaIwEEE10deallocateEPS4_j @ 650
;	__gnu_cxx::new_allocator<std::basic_string<wchar_t, std::char_traits<wchar_t>, std::allocator<wchar_t> > >::allocate(unsigned int, void const*)
	_ZN9__gnu_cxx13new_allocatorISbIwSt11char_traitsIwESaIwEEE8allocateEjPKv @ 651
;	__gnu_cxx::new_allocator<std::basic_string<wchar_t, std::char_traits<wchar_t>, std::allocator<wchar_t> > >::new_allocator(__gnu_cxx::new_allocator<std::basic_string<wchar_t, std::char_traits<wchar_t>, std::allocator<wchar_t> > > const&)
	_ZN9__gnu_cxx13new_allocatorISbIwSt11char_traitsIwESaIwEEEC2ERKS5_ @ 652
;	__gnu_cxx::new_allocator<std::basic_string<wchar_t, std::char_traits<wchar_t>, std::allocator<wchar_t> > >::new_allocator()
	_ZN9__gnu_cxx13new_allocatorISbIwSt11char_traitsIwESaIwEEEC2Ev @ 653
;	__gnu_cxx::new_allocator<std::basic_string<wchar_t, std::char_traits<wchar_t>, std::allocator<wchar_t> > >::~new_allocator()
	_ZN9__gnu_cxx13new_allocatorISbIwSt11char_traitsIwESaIwEEED2Ev @ 654
;	__gnu_cxx::new_allocator<std::string>::deallocate(std::string*, unsigned int)
	_ZN9__gnu_cxx13new_allocatorISsE10deallocateEPSsj @ 655
;	__gnu_cxx::new_allocator<std::string>::allocate(unsigned int, void const*)
	_ZN9__gnu_cxx13new_allocatorISsE8allocateEjPKv @ 656
;	__gnu_cxx::new_allocator<std::string>::new_allocator(__gnu_cxx::new_allocator<std::string> const&)
	_ZN9__gnu_cxx13new_allocatorISsEC2ERKS1_ @ 657
;	__gnu_cxx::new_allocator<std::string>::new_allocator()
	_ZN9__gnu_cxx13new_allocatorISsEC2Ev @ 658
;	__gnu_cxx::new_allocator<std::string>::~new_allocator()
	_ZN9__gnu_cxx13new_allocatorISsED2Ev @ 659
;	__gnu_cxx::new_allocator<std::_Rb_tree_node<std::pair<NFANode* const, bool> > >::deallocate(std::_Rb_tree_node<std::pair<NFANode* const, bool> >*, unsigned int)
	_ZN9__gnu_cxx13new_allocatorISt13_Rb_tree_nodeISt4pairIKP7NFANodebEEE10deallocateEPS7_j @ 660
;	__gnu_cxx::new_allocator<std::_Rb_tree_node<std::pair<NFANode* const, bool> > >::allocate(unsigned int, void const*)
	_ZN9__gnu_cxx13new_allocatorISt13_Rb_tree_nodeISt4pairIKP7NFANodebEEE8allocateEjPKv @ 661
;	__gnu_cxx::new_allocator<std::_Rb_tree_node<std::pair<NFANode* const, bool> > >::new_allocator(__gnu_cxx::new_allocator<std::_Rb_tree_node<std::pair<NFANode* const, bool> > > const&)
	_ZN9__gnu_cxx13new_allocatorISt13_Rb_tree_nodeISt4pairIKP7NFANodebEEEC2ERKS8_ @ 662
;	__gnu_cxx::new_allocator<std::_Rb_tree_node<std::pair<NFANode* const, bool> > >::new_allocator()
	_ZN9__gnu_cxx13new_allocatorISt13_Rb_tree_nodeISt4pairIKP7NFANodebEEEC2Ev @ 663
;	__gnu_cxx::new_allocator<std::_Rb_tree_node<std::pair<NFANode* const, bool> > >::~new_allocator()
	_ZN9__gnu_cxx13new_allocatorISt13_Rb_tree_nodeISt4pairIKP7NFANodebEEED2Ev @ 664
;	__gnu_cxx::new_allocator<std::_Rb_tree_node<std::pair<NFAUNode* const, bool> > >::deallocate(std::_Rb_tree_node<std::pair<NFAUNode* const, bool> >*, unsigned int)
	_ZN9__gnu_cxx13new_allocatorISt13_Rb_tree_nodeISt4pairIKP8NFAUNodebEEE10deallocateEPS7_j @ 665
;	__gnu_cxx::new_allocator<std::_Rb_tree_node<std::pair<NFAUNode* const, bool> > >::allocate(unsigned int, void const*)
	_ZN9__gnu_cxx13new_allocatorISt13_Rb_tree_nodeISt4pairIKP8NFAUNodebEEE8allocateEjPKv @ 666
;	__gnu_cxx::new_allocator<std::_Rb_tree_node<std::pair<NFAUNode* const, bool> > >::new_allocator(__gnu_cxx::new_allocator<std::_Rb_tree_node<std::pair<NFAUNode* const, bool> > > const&)
	_ZN9__gnu_cxx13new_allocatorISt13_Rb_tree_nodeISt4pairIKP8NFAUNodebEEEC2ERKS8_ @ 667
;	__gnu_cxx::new_allocator<std::_Rb_tree_node<std::pair<NFAUNode* const, bool> > >::new_allocator()
	_ZN9__gnu_cxx13new_allocatorISt13_Rb_tree_nodeISt4pairIKP8NFAUNodebEEEC2Ev @ 668
;	__gnu_cxx::new_allocator<std::_Rb_tree_node<std::pair<NFAUNode* const, bool> > >::~new_allocator()
	_ZN9__gnu_cxx13new_allocatorISt13_Rb_tree_nodeISt4pairIKP8NFAUNodebEEED2Ev @ 669
;	__gnu_cxx::new_allocator<std::_Rb_tree_node<std::pair<std::basic_string<wchar_t, std::char_traits<wchar_t>, std::allocator<wchar_t> > const, WCPattern*> > >::deallocate(std::_Rb_tree_node<std::pair<std::basic_string<wchar_t, std::char_traits<wchar_t>, std::allocator<wchar_t> > const, WCPattern*> >*, unsigned int)
	_ZN9__gnu_cxx13new_allocatorISt13_Rb_tree_nodeISt4pairIKSbIwSt11char_traitsIwESaIwEEP9WCPatternEEE10deallocateEPSB_j @ 670
;	__gnu_cxx::new_allocator<std::_Rb_tree_node<std::pair<std::basic_string<wchar_t, std::char_traits<wchar_t>, std::allocator<wchar_t> > const, WCPattern*> > >::allocate(unsigned int, void const*)
	_ZN9__gnu_cxx13new_allocatorISt13_Rb_tree_nodeISt4pairIKSbIwSt11char_traitsIwESaIwEEP9WCPatternEEE8allocateEjPKv @ 671
;	__gnu_cxx::new_allocator<std::_Rb_tree_node<std::pair<std::basic_string<wchar_t, std::char_traits<wchar_t>, std::allocator<wchar_t> > const, WCPattern*> > >::new_allocator(__gnu_cxx::new_allocator<std::_Rb_tree_node<std::pair<std::basic_string<wchar_t, std::char_traits<wchar_t>, std::allocator<wchar_t> > const, WCPattern*> > > const&)
	_ZN9__gnu_cxx13new_allocatorISt13_Rb_tree_nodeISt4pairIKSbIwSt11char_traitsIwESaIwEEP9WCPatternEEEC2ERKSC_ @ 672
;	__gnu_cxx::new_allocator<std::_Rb_tree_node<std::pair<std::basic_string<wchar_t, std::char_traits<wchar_t>, std::allocator<wchar_t> > const, WCPattern*> > >::new_allocator()
	_ZN9__gnu_cxx13new_allocatorISt13_Rb_tree_nodeISt4pairIKSbIwSt11char_traitsIwESaIwEEP9WCPatternEEEC2Ev @ 673
;	__gnu_cxx::new_allocator<std::_Rb_tree_node<std::pair<std::basic_string<wchar_t, std::char_traits<wchar_t>, std::allocator<wchar_t> > const, WCPattern*> > >::~new_allocator()
	_ZN9__gnu_cxx13new_allocatorISt13_Rb_tree_nodeISt4pairIKSbIwSt11char_traitsIwESaIwEEP9WCPatternEEED2Ev @ 674
;	__gnu_cxx::new_allocator<std::_Rb_tree_node<std::pair<std::basic_string<wchar_t, std::char_traits<wchar_t>, std::allocator<wchar_t> > const, std::pair<std::basic_string<wchar_t, std::char_traits<wchar_t>, std::allocator<wchar_t> >, unsigned long> > > >::deallocate(std::_Rb_tree_node<std::pair<std::basic_string<wchar_t, std::char_traits<wchar_t>, std::allocator<wchar_t> > const, std::pair<std::basic_string<wchar_t, std::char_traits<wchar_t>, std::allocator<wchar_t> >, unsigned long> > >*, unsigned int)
	_ZN9__gnu_cxx13new_allocatorISt13_Rb_tree_nodeISt4pairIKSbIwSt11char_traitsIwESaIwEES2_IS6_mEEEE10deallocateEPSA_j @ 675
;	__gnu_cxx::new_allocator<std::_Rb_tree_node<std::pair<std::basic_string<wchar_t, std::char_traits<wchar_t>, std::allocator<wchar_t> > const, std::pair<std::basic_string<wchar_t, std::char_traits<wchar_t>, std::allocator<wchar_t> >, unsigned long> > > >::allocate(unsigned int, void const*)
	_ZN9__gnu_cxx13new_allocatorISt13_Rb_tree_nodeISt4pairIKSbIwSt11char_traitsIwESaIwEES2_IS6_mEEEE8allocateEjPKv @ 676
;	__gnu_cxx::new_allocator<std::_Rb_tree_node<std::pair<std::basic_string<wchar_t, std::char_traits<wchar_t>, std::allocator<wchar_t> > const, std::pair<std::basic_string<wchar_t, std::char_traits<wchar_t>, std::allocator<wchar_t> >, unsigned long> > > >::new_allocator(__gnu_cxx::new_allocator<std::_Rb_tree_node<std::pair<std::basic_string<wchar_t, std::char_traits<wchar_t>, std::allocator<wchar_t> > const, std::pair<std::basic_string<wchar_t, std::char_traits<wchar_t>, std::allocator<wchar_t> >, unsigned long> > > > const&)
	_ZN9__gnu_cxx13new_allocatorISt13_Rb_tree_nodeISt4pairIKSbIwSt11char_traitsIwESaIwEES2_IS6_mEEEEC2ERKSB_ @ 677
;	__gnu_cxx::new_allocator<std::_Rb_tree_node<std::pair<std::basic_string<wchar_t, std::char_traits<wchar_t>, std::allocator<wchar_t> > const, std::pair<std::basic_string<wchar_t, std::char_traits<wchar_t>, std::allocator<wchar_t> >, unsigned long> > > >::new_allocator()
	_ZN9__gnu_cxx13new_allocatorISt13_Rb_tree_nodeISt4pairIKSbIwSt11char_traitsIwESaIwEES2_IS6_mEEEEC2Ev @ 678
;	__gnu_cxx::new_allocator<std::_Rb_tree_node<std::pair<std::basic_string<wchar_t, std::char_traits<wchar_t>, std::allocator<wchar_t> > const, std::pair<std::basic_string<wchar_t, std::char_traits<wchar_t>, std::allocator<wchar_t> >, unsigned long> > > >::~new_allocator()
	_ZN9__gnu_cxx13new_allocatorISt13_Rb_tree_nodeISt4pairIKSbIwSt11char_traitsIwESaIwEES2_IS6_mEEEED2Ev @ 679
;	__gnu_cxx::new_allocator<std::_Rb_tree_node<std::pair<std::string const, Pattern*> > >::deallocate(std::_Rb_tree_node<std::pair<std::string const, Pattern*> >*, unsigned int)
	_ZN9__gnu_cxx13new_allocatorISt13_Rb_tree_nodeISt4pairIKSsP7PatternEEE10deallocateEPS7_j @ 680
;	__gnu_cxx::new_allocator<std::_Rb_tree_node<std::pair<std::string const, Pattern*> > >::allocate(unsigned int, void const*)
	_ZN9__gnu_cxx13new_allocatorISt13_Rb_tree_nodeISt4pairIKSsP7PatternEEE8allocateEjPKv @ 681
;	__gnu_cxx::new_allocator<std::_Rb_tree_node<std::pair<std::string const, Pattern*> > >::new_allocator(__gnu_cxx::new_allocator<std::_Rb_tree_node<std::pair<std::string const, Pattern*> > > const&)
	_ZN9__gnu_cxx13new_allocatorISt13_Rb_tree_nodeISt4pairIKSsP7PatternEEEC2ERKS8_ @ 682
;	__gnu_cxx::new_allocator<std::_Rb_tree_node<std::pair<std::string const, Pattern*> > >::new_allocator()
	_ZN9__gnu_cxx13new_allocatorISt13_Rb_tree_nodeISt4pairIKSsP7PatternEEEC2Ev @ 683
;	__gnu_cxx::new_allocator<std::_Rb_tree_node<std::pair<std::string const, Pattern*> > >::~new_allocator()
	_ZN9__gnu_cxx13new_allocatorISt13_Rb_tree_nodeISt4pairIKSsP7PatternEEED2Ev @ 684
;	__gnu_cxx::new_allocator<std::_Rb_tree_node<std::pair<std::string const, std::pair<std::string, unsigned long> > > >::deallocate(std::_Rb_tree_node<std::pair<std::string const, std::pair<std::string, unsigned long> > >*, unsigned int)
	_ZN9__gnu_cxx13new_allocatorISt13_Rb_tree_nodeISt4pairIKSsS2_ISsmEEEE10deallocateEPS6_j @ 685
;	__gnu_cxx::new_allocator<std::_Rb_tree_node<std::pair<std::string const, std::pair<std::string, unsigned long> > > >::allocate(unsigned int, void const*)
	_ZN9__gnu_cxx13new_allocatorISt13_Rb_tree_nodeISt4pairIKSsS2_ISsmEEEE8allocateEjPKv @ 686
;	__gnu_cxx::new_allocator<std::_Rb_tree_node<std::pair<std::string const, std::pair<std::string, unsigned long> > > >::new_allocator(__gnu_cxx::new_allocator<std::_Rb_tree_node<std::pair<std::string const, std::pair<std::string, unsigned long> > > > const&)
	_ZN9__gnu_cxx13new_allocatorISt13_Rb_tree_nodeISt4pairIKSsS2_ISsmEEEEC2ERKS7_ @ 687
;	__gnu_cxx::new_allocator<std::_Rb_tree_node<std::pair<std::string const, std::pair<std::string, unsigned long> > > >::new_allocator()
	_ZN9__gnu_cxx13new_allocatorISt13_Rb_tree_nodeISt4pairIKSsS2_ISsmEEEEC2Ev @ 688
;	__gnu_cxx::new_allocator<std::_Rb_tree_node<std::pair<std::string const, std::pair<std::string, unsigned long> > > >::~new_allocator()
	_ZN9__gnu_cxx13new_allocatorISt13_Rb_tree_nodeISt4pairIKSsS2_ISsmEEEED2Ev @ 689
;	__gnu_cxx::new_allocator<std::_Rb_tree_node<std::pair<char const, bool> > >::deallocate(std::_Rb_tree_node<std::pair<char const, bool> >*, unsigned int)
	_ZN9__gnu_cxx13new_allocatorISt13_Rb_tree_nodeISt4pairIKcbEEE10deallocateEPS5_j @ 690
;	__gnu_cxx::new_allocator<std::_Rb_tree_node<std::pair<char const, bool> > >::allocate(unsigned int, void const*)
	_ZN9__gnu_cxx13new_allocatorISt13_Rb_tree_nodeISt4pairIKcbEEE8allocateEjPKv @ 691
;	__gnu_cxx::new_allocator<std::_Rb_tree_node<std::pair<char const, bool> > >::new_allocator(__gnu_cxx::new_allocator<std::_Rb_tree_node<std::pair<char const, bool> > > const&)
	_ZN9__gnu_cxx13new_allocatorISt13_Rb_tree_nodeISt4pairIKcbEEEC2ERKS6_ @ 692
;	__gnu_cxx::new_allocator<std::_Rb_tree_node<std::pair<char const, bool> > >::new_allocator()
	_ZN9__gnu_cxx13new_allocatorISt13_Rb_tree_nodeISt4pairIKcbEEEC2Ev @ 693
;	__gnu_cxx::new_allocator<std::_Rb_tree_node<std::pair<char const, bool> > >::~new_allocator()
	_ZN9__gnu_cxx13new_allocatorISt13_Rb_tree_nodeISt4pairIKcbEEED2Ev @ 694
;	__gnu_cxx::new_allocator<std::_Rb_tree_node<std::pair<wchar_t const, bool> > >::deallocate(std::_Rb_tree_node<std::pair<wchar_t const, bool> >*, unsigned int)
	_ZN9__gnu_cxx13new_allocatorISt13_Rb_tree_nodeISt4pairIKwbEEE10deallocateEPS5_j @ 695
;	__gnu_cxx::new_allocator<std::_Rb_tree_node<std::pair<wchar_t const, bool> > >::allocate(unsigned int, void const*)
	_ZN9__gnu_cxx13new_allocatorISt13_Rb_tree_nodeISt4pairIKwbEEE8allocateEjPKv @ 696
;	__gnu_cxx::new_allocator<std::_Rb_tree_node<std::pair<wchar_t const, bool> > >::new_allocator(__gnu_cxx::new_allocator<std::_Rb_tree_node<std::pair<wchar_t const, bool> > > const&)
	_ZN9__gnu_cxx13new_allocatorISt13_Rb_tree_nodeISt4pairIKwbEEEC2ERKS6_ @ 697
;	__gnu_cxx::new_allocator<std::_Rb_tree_node<std::pair<wchar_t const, bool> > >::new_allocator()
	_ZN9__gnu_cxx13new_allocatorISt13_Rb_tree_nodeISt4pairIKwbEEEC2Ev @ 698
;	__gnu_cxx::new_allocator<std::_Rb_tree_node<std::pair<wchar_t const, bool> > >::~new_allocator()
	_ZN9__gnu_cxx13new_allocatorISt13_Rb_tree_nodeISt4pairIKwbEEED2Ev @ 699
;	__gnu_cxx::new_allocator<std::pair<NFANode* const, bool> >::new_allocator()
	_ZN9__gnu_cxx13new_allocatorISt4pairIKP7NFANodebEEC2Ev @ 700
;	__gnu_cxx::new_allocator<std::pair<NFANode* const, bool> >::~new_allocator()
	_ZN9__gnu_cxx13new_allocatorISt4pairIKP7NFANodebEED2Ev @ 701
;	__gnu_cxx::new_allocator<std::pair<NFAUNode* const, bool> >::new_allocator()
	_ZN9__gnu_cxx13new_allocatorISt4pairIKP8NFAUNodebEEC2Ev @ 702
;	__gnu_cxx::new_allocator<std::pair<NFAUNode* const, bool> >::~new_allocator()
	_ZN9__gnu_cxx13new_allocatorISt4pairIKP8NFAUNodebEED2Ev @ 703
;	__gnu_cxx::new_allocator<std::pair<std::basic_string<wchar_t, std::char_traits<wchar_t>, std::allocator<wchar_t> > const, WCPattern*> >::new_allocator()
	_ZN9__gnu_cxx13new_allocatorISt4pairIKSbIwSt11char_traitsIwESaIwEEP9WCPatternEEC2Ev @ 704
;	__gnu_cxx::new_allocator<std::pair<std::basic_string<wchar_t, std::char_traits<wchar_t>, std::allocator<wchar_t> > const, WCPattern*> >::~new_allocator()
	_ZN9__gnu_cxx13new_allocatorISt4pairIKSbIwSt11char_traitsIwESaIwEEP9WCPatternEED2Ev @ 705
;	__gnu_cxx::new_allocator<std::pair<std::basic_string<wchar_t, std::char_traits<wchar_t>, std::allocator<wchar_t> > const, std::pair<std::basic_string<wchar_t, std::char_traits<wchar_t>, std::allocator<wchar_t> >, unsigned long> > >::new_allocator()
	_ZN9__gnu_cxx13new_allocatorISt4pairIKSbIwSt11char_traitsIwESaIwEES1_IS5_mEEEC2Ev @ 706
;	__gnu_cxx::new_allocator<std::pair<std::basic_string<wchar_t, std::char_traits<wchar_t>, std::allocator<wchar_t> > const, std::pair<std::basic_string<wchar_t, std::char_traits<wchar_t>, std::allocator<wchar_t> >, unsigned long> > >::~new_allocator()
	_ZN9__gnu_cxx13new_allocatorISt4pairIKSbIwSt11char_traitsIwESaIwEES1_IS5_mEEED2Ev @ 707
;	__gnu_cxx::new_allocator<std::pair<std::string const, Pattern*> >::new_allocator()
	_ZN9__gnu_cxx13new_allocatorISt4pairIKSsP7PatternEEC2Ev @ 708
;	__gnu_cxx::new_allocator<std::pair<std::string const, Pattern*> >::~new_allocator()
	_ZN9__gnu_cxx13new_allocatorISt4pairIKSsP7PatternEED2Ev @ 709
;	__gnu_cxx::new_allocator<std::pair<std::string const, std::pair<std::string, unsigned long> > >::new_allocator()
	_ZN9__gnu_cxx13new_allocatorISt4pairIKSsS1_ISsmEEEC2Ev @ 710
;	__gnu_cxx::new_allocator<std::pair<std::string const, std::pair<std::string, unsigned long> > >::~new_allocator()
	_ZN9__gnu_cxx13new_allocatorISt4pairIKSsS1_ISsmEEED2Ev @ 711
;	__gnu_cxx::new_allocator<std::pair<char const, bool> >::new_allocator()
	_ZN9__gnu_cxx13new_allocatorISt4pairIKcbEEC2Ev @ 712
;	__gnu_cxx::new_allocator<std::pair<char const, bool> >::~new_allocator()
	_ZN9__gnu_cxx13new_allocatorISt4pairIKcbEED2Ev @ 713
;	__gnu_cxx::new_allocator<std::pair<wchar_t const, bool> >::new_allocator()
	_ZN9__gnu_cxx13new_allocatorISt4pairIKwbEEC2Ev @ 714
;	__gnu_cxx::new_allocator<std::pair<wchar_t const, bool> >::~new_allocator()
	_ZN9__gnu_cxx13new_allocatorISt4pairIKwbEED2Ev @ 715
;	__gnu_cxx::new_allocator<char>::deallocate(char*, unsigned int)
	_ZN9__gnu_cxx13new_allocatorIcE10deallocateEPcj @ 716
;	__gnu_cxx::new_allocator<char>::allocate(unsigned int, void const*)
	_ZN9__gnu_cxx13new_allocatorIcE8allocateEjPKv @ 717
;	__gnu_cxx::new_allocator<char>::new_allocator()
	_ZN9__gnu_cxx13new_allocatorIcEC2Ev @ 718
;	__gnu_cxx::__normal_iterator<std::basic_string<wchar_t, std::char_traits<wchar_t>, std::allocator<wchar_t> > const*, std::vector<std::basic_string<wchar_t, std::char_traits<wchar_t>, std::allocator<wchar_t> >, std::allocator<std::basic_string<wchar_t, std::char_traits<wchar_t>, std::allocator<wchar_t> > > > >::__normal_iterator(std::basic_string<wchar_t, std::char_traits<wchar_t>, std::allocator<wchar_t> > const* const&)
	_ZN9__gnu_cxx17__normal_iteratorIPKSbIwSt11char_traitsIwESaIwEESt6vectorIS4_SaIS4_EEEC1ERKS6_ @ 719
;	__gnu_cxx::__normal_iterator<std::basic_string<wchar_t, std::char_traits<wchar_t>, std::allocator<wchar_t> > const*, std::vector<std::basic_string<wchar_t, std::char_traits<wchar_t>, std::allocator<wchar_t> >, std::allocator<std::basic_string<wchar_t, std::char_traits<wchar_t>, std::allocator<wchar_t> > > > >::operator++()
	_ZN9__gnu_cxx17__normal_iteratorIPKSbIwSt11char_traitsIwESaIwEESt6vectorIS4_SaIS4_EEEppEv @ 720
;	__gnu_cxx::__normal_iterator<std::string const*, std::vector<std::string, std::allocator<std::string> > >::__normal_iterator(std::string const* const&)
	_ZN9__gnu_cxx17__normal_iteratorIPKSsSt6vectorISsSaISsEEEC1ERKS2_ @ 721
;	__gnu_cxx::__normal_iterator<std::string const*, std::vector<std::string, std::allocator<std::string> > >::operator++()
	_ZN9__gnu_cxx17__normal_iteratorIPKSsSt6vectorISsSaISsEEEppEv @ 722
;	__gnu_cxx::__normal_iterator<std::basic_string<wchar_t, std::char_traits<wchar_t>, std::allocator<wchar_t> >*, std::vector<std::basic_string<wchar_t, std::char_traits<wchar_t>, std::allocator<wchar_t> >, std::allocator<std::basic_string<wchar_t, std::char_traits<wchar_t>, std::allocator<wchar_t> > > > >::__normal_iterator(std::basic_string<wchar_t, std::char_traits<wchar_t>, std::allocator<wchar_t> >* const&)
	_ZN9__gnu_cxx17__normal_iteratorIPSbIwSt11char_traitsIwESaIwEESt6vectorIS4_SaIS4_EEEC1ERKS5_ @ 723
;	__gnu_cxx::__normal_iterator<std::basic_string<wchar_t, std::char_traits<wchar_t>, std::allocator<wchar_t> >*, std::vector<std::basic_string<wchar_t, std::char_traits<wchar_t>, std::allocator<wchar_t> >, std::allocator<std::basic_string<wchar_t, std::char_traits<wchar_t>, std::allocator<wchar_t> > > > >::operator++()
	_ZN9__gnu_cxx17__normal_iteratorIPSbIwSt11char_traitsIwESaIwEESt6vectorIS4_SaIS4_EEEppEv @ 724
;	__gnu_cxx::__normal_iterator<std::string*, std::vector<std::string, std::allocator<std::string> > >::__normal_iterator(std::string* const&)
	_ZN9__gnu_cxx17__normal_iteratorIPSsSt6vectorISsSaISsEEEC1ERKS1_ @ 725
;	__gnu_cxx::__normal_iterator<std::string*, std::vector<std::string, std::allocator<std::string> > >::operator++()
	_ZN9__gnu_cxx17__normal_iteratorIPSsSt6vectorISsSaISsEEEppEv @ 726
;	__gnu_cxx::__normal_iterator<char*, std::string>::__normal_iterator(char* const&)
	_ZN9__gnu_cxx17__normal_iteratorIPcSsEC1ERKS1_ @ 727
;	__gnu_cxx::__normal_iterator<char*, std::string>::operator--(int)
	_ZN9__gnu_cxx17__normal_iteratorIPcSsEmmEi @ 728
;	__gnu_cxx::__normal_iterator<char*, std::string>::operator--()
	_ZN9__gnu_cxx17__normal_iteratorIPcSsEmmEv @ 729
;	__gnu_cxx::__normal_iterator<char*, std::string>::operator++()
	_ZN9__gnu_cxx17__normal_iteratorIPcSsEppEv @ 730
;	__gnu_cxx::__normal_iterator<wchar_t*, std::basic_string<wchar_t, std::char_traits<wchar_t>, std::allocator<wchar_t> > >::__normal_iterator(wchar_t* const&)
	_ZN9__gnu_cxx17__normal_iteratorIPwSbIwSt11char_traitsIwESaIwEEEC1ERKS1_ @ 731
;	__gnu_cxx::__normal_iterator<wchar_t*, std::basic_string<wchar_t, std::char_traits<wchar_t>, std::allocator<wchar_t> > >::operator--(int)
	_ZN9__gnu_cxx17__normal_iteratorIPwSbIwSt11char_traitsIwESaIwEEEmmEi @ 732
;	__gnu_cxx::__normal_iterator<wchar_t*, std::basic_string<wchar_t, std::char_traits<wchar_t>, std::allocator<wchar_t> > >::operator--()
	_ZN9__gnu_cxx17__normal_iteratorIPwSbIwSt11char_traitsIwESaIwEEEmmEv @ 733
;	__gnu_cxx::__normal_iterator<wchar_t*, std::basic_string<wchar_t, std::char_traits<wchar_t>, std::allocator<wchar_t> > >::operator++()
	_ZN9__gnu_cxx17__normal_iteratorIPwSbIwSt11char_traitsIwESaIwEEEppEv @ 734
;	bool __gnu_cxx::operator==<char*, std::string>(__gnu_cxx::__normal_iterator<char*, std::string> const&, __gnu_cxx::__normal_iterator<char*, std::string> const&)
	_ZN9__gnu_cxxeqIPcSsEEbRKNS_17__normal_iteratorIT_T0_EES7_ @ 735
;	bool __gnu_cxx::operator==<wchar_t*, std::basic_string<wchar_t, std::char_traits<wchar_t>, std::allocator<wchar_t> > >(__gnu_cxx::__normal_iterator<wchar_t*, std::basic_string<wchar_t, std::char_traits<wchar_t>, std::allocator<wchar_t> > > const&, __gnu_cxx::__normal_iterator<wchar_t*, std::basic_string<wchar_t, std::char_traits<wchar_t>, std::allocator<wchar_t> > > const&)
	_ZN9__gnu_cxxeqIPwSbIwSt11char_traitsIwESaIwEEEEbRKNS_17__normal_iteratorIT_T0_EESB_ @ 736
;	bool __gnu_cxx::operator< <char*, std::string>(__gnu_cxx::__normal_iterator<char*, std::string> const&, __gnu_cxx::__normal_iterator<char*, std::string> const&)
	_ZN9__gnu_cxxltIPcSsEEbRKNS_17__normal_iteratorIT_T0_EES7_ @ 737
;	bool __gnu_cxx::operator< <wchar_t*, std::basic_string<wchar_t, std::char_traits<wchar_t>, std::allocator<wchar_t> > >(__gnu_cxx::__normal_iterator<wchar_t*, std::basic_string<wchar_t, std::char_traits<wchar_t>, std::allocator<wchar_t> > > const&, __gnu_cxx::__normal_iterator<wchar_t*, std::basic_string<wchar_t, std::char_traits<wchar_t>, std::allocator<wchar_t> > > const&)
	_ZN9__gnu_cxxltIPwSbIwSt11char_traitsIwESaIwEEEEbRKNS_17__normal_iteratorIT_T0_EESB_ @ 738
;	__gnu_cxx::__normal_iterator<std::basic_string<wchar_t, std::char_traits<wchar_t>, std::allocator<wchar_t> > const*, std::vector<std::basic_string<wchar_t, std::char_traits<wchar_t>, std::allocator<wchar_t> >, std::allocator<std::basic_string<wchar_t, std::char_traits<wchar_t>, std::allocator<wchar_t> > > > >::difference_type __gnu_cxx::operator-<std::basic_string<wchar_t, std::char_traits<wchar_t>, std::allocator<wchar_t> > const*, std::basic_string<wchar_t, std::char_traits<wchar_t>, std::allocator<wchar_t> > const*, std::vector<std::basic_string<wchar_t, std::char_traits<wchar_t>, std::allocator<wchar_t> >, std::allocator<std::basic_string<wchar_t, std::char_traits<wchar_t>, std::allocator<wchar_t> > > > >(__gnu_cxx::__normal_iterator<std::basic_string<wchar_t, std::char_traits<wchar_t>, std::allocator<wchar_t> > const*, std::vector<std::basic_string<wchar_t, std::char_traits<wchar_t>, std::allocator<wchar_t> >, std::allocator<std::basic_string<wchar_t, std::char_traits<wchar_t>, std::allocator<wchar_t> > > > > const&, __gnu_cxx::__normal_iterator<std::basic_string<wchar_t, std::char_traits<wchar_t>, std::allocator<wchar_t> > const*, std::vector<std::basic_string<wchar_t, std::char_traits<wchar_t>, std::allocator<wchar_t> >, std::allocator<std::basic_string<wchar_t, std::char_traits<wchar_t>, std::allocator<wchar_t> > > > > const&)
	_ZN9__gnu_cxxmiIPKSbIwSt11char_traitsIwESaIwEES6_St6vectorIS4_SaIS4_EEEENS_17__normal_iteratorIT_T1_E15difference_typeERKSD_RKNSA_IT0_SC_EE @ 739
;	__gnu_cxx::__normal_iterator<std::string const*, std::vector<std::string, std::allocator<std::string> > >::difference_type __gnu_cxx::operator-<std::string const*, std::string const*, std::vector<std::string, std::allocator<std::string> > >(__gnu_cxx::__normal_iterator<std::string const*, std::vector<std::string, std::allocator<std::string> > > const&, __gnu_cxx::__normal_iterator<std::string const*, std::vector<std::string, std::allocator<std::string> > > const&)
	_ZN9__gnu_cxxmiIPKSsS2_St6vectorISsSaISsEEEENS_17__normal_iteratorIT_T1_E15difference_typeERKS9_RKNS6_IT0_S8_EE @ 740
;	__gnu_cxx::__normal_iterator<char*, std::string>::difference_type __gnu_cxx::operator-<char*, char*, std::string>(__gnu_cxx::__normal_iterator<char*, std::string> const&, __gnu_cxx::__normal_iterator<char*, std::string> const&)
	_ZN9__gnu_cxxmiIPcS1_SsEENS_17__normal_iteratorIT_T1_E15difference_typeERKS5_RKNS2_IT0_S4_EE @ 741
;	__gnu_cxx::__normal_iterator<wchar_t*, std::basic_string<wchar_t, std::char_traits<wchar_t>, std::allocator<wchar_t> > >::difference_type __gnu_cxx::operator-<wchar_t*, wchar_t*, std::basic_string<wchar_t, std::char_traits<wchar_t>, std::allocator<wchar_t> > >(__gnu_cxx::__normal_iterator<wchar_t*, std::basic_string<wchar_t, std::char_traits<wchar_t>, std::allocator<wchar_t> > > const&, __gnu_cxx::__normal_iterator<wchar_t*, std::basic_string<wchar_t, std::char_traits<wchar_t>, std::allocator<wchar_t> > > const&)
	_ZN9__gnu_cxxmiIPwS1_SbIwSt11char_traitsIwESaIwEEEENS_17__normal_iteratorIT_T1_E15difference_typeERKS9_RKNS6_IT0_S8_EE @ 742
;	bool __gnu_cxx::operator!=<std::basic_string<wchar_t, std::char_traits<wchar_t>, std::allocator<wchar_t> > const*, std::vector<std::basic_string<wchar_t, std::char_traits<wchar_t>, std::allocator<wchar_t> >, std::allocator<std::basic_string<wchar_t, std::char_traits<wchar_t>, std::allocator<wchar_t> > > > >(__gnu_cxx::__normal_iterator<std::basic_string<wchar_t, std::char_traits<wchar_t>, std::allocator<wchar_t> > const*, std::vector<std::basic_string<wchar_t, std::char_traits<wchar_t>, std::allocator<wchar_t> >, std::allocator<std::basic_string<wchar_t, std::char_traits<wchar_t>, std::allocator<wchar_t> > > > > const&, __gnu_cxx::__normal_iterator<std::basic_string<wchar_t, std::char_traits<wchar_t>, std::allocator<wchar_t> > const*, std::vector<std::basic_string<wchar_t, std::char_traits<wchar_t>, std::allocator<wchar_t> >, std::allocator<std::basic_string<wchar_t, std::char_traits<wchar_t>, std::allocator<wchar_t> > > > > const&)
	_ZN9__gnu_cxxneIPKSbIwSt11char_traitsIwESaIwEESt6vectorIS4_SaIS4_EEEEbRKNS_17__normal_iteratorIT_T0_EESF_ @ 743
;	bool __gnu_cxx::operator!=<std::string const*, std::vector<std::string, std::allocator<std::string> > >(__gnu_cxx::__normal_iterator<std::string const*, std::vector<std::string, std::allocator<std::string> > > const&, __gnu_cxx::__normal_iterator<std::string const*, std::vector<std::string, std::allocator<std::string> > > const&)
	_ZN9__gnu_cxxneIPKSsSt6vectorISsSaISsEEEEbRKNS_17__normal_iteratorIT_T0_EESB_ @ 744
;	bool __gnu_cxx::operator!=<std::basic_string<wchar_t, std::char_traits<wchar_t>, std::allocator<wchar_t> >*, std::vector<std::basic_string<wchar_t, std::char_traits<wchar_t>, std::allocator<wchar_t> >, std::allocator<std::basic_string<wchar_t, std::char_traits<wchar_t>, std::allocator<wchar_t> > > > >(__gnu_cxx::__normal_iterator<std::basic_string<wchar_t, std::char_traits<wchar_t>, std::allocator<wchar_t> >*, std::vector<std::basic_string<wchar_t, std::char_traits<wchar_t>, std::allocator<wchar_t> >, std::allocator<std::basic_string<wchar_t, std::char_traits<wchar_t>, std::allocator<wchar_t> > > > > const&, __gnu_cxx::__normal_iterator<std::basic_string<wchar_t, std::char_traits<wchar_t>, std::allocator<wchar_t> >*, std::vector<std::basic_string<wchar_t, std::char_traits<wchar_t>, std::allocator<wchar_t> >, std::allocator<std::basic_string<wchar_t, std::char_traits<wchar_t>, std::allocator<wchar_t> > > > > const&)
	_ZN9__gnu_cxxneIPSbIwSt11char_traitsIwESaIwEESt6vectorIS4_SaIS4_EEEEbRKNS_17__normal_iteratorIT_T0_EESE_ @ 745
;	bool __gnu_cxx::operator!=<std::string*, std::vector<std::string, std::allocator<std::string> > >(__gnu_cxx::__normal_iterator<std::string*, std::vector<std::string, std::allocator<std::string> > > const&, __gnu_cxx::__normal_iterator<std::string*, std::vector<std::string, std::allocator<std::string> > > const&)
	_ZN9__gnu_cxxneIPSsSt6vectorISsSaISsEEEEbRKNS_17__normal_iteratorIT_T0_EESA_ @ 746
;	bool __gnu_cxx::operator!=<char*, std::string>(__gnu_cxx::__normal_iterator<char*, std::string> const&, __gnu_cxx::__normal_iterator<char*, std::string> const&)
	_ZN9__gnu_cxxneIPcSsEEbRKNS_17__normal_iteratorIT_T0_EES7_ @ 747
;	bool __gnu_cxx::operator!=<wchar_t*, std::basic_string<wchar_t, std::char_traits<wchar_t>, std::allocator<wchar_t> > >(__gnu_cxx::__normal_iterator<wchar_t*, std::basic_string<wchar_t, std::char_traits<wchar_t>, std::allocator<wchar_t> > > const&, __gnu_cxx::__normal_iterator<wchar_t*, std::basic_string<wchar_t, std::char_traits<wchar_t>, std::allocator<wchar_t> > > const&)
	_ZN9__gnu_cxxneIPwSbIwSt11char_traitsIwESaIwEEEEbRKNS_17__normal_iteratorIT_T0_EESB_ @ 748
;	ItemIDList::get(int) const
	_ZNK10ItemIDList3getEi @ 749
;	ItemIDList::size() const
	_ZNK10ItemIDList4sizeEv @ 750
;	NFAEndNode::match(std::string const&, Matcher*, int, int) const
	_ZNK10NFAEndNode5matchERKSsP7Matcherii @ 751
;	NFAOrUNode::match(std::basic_string<wchar_t, std::char_traits<wchar_t>, std::allocator<wchar_t> > const&, WCMatcher*, int) const
	_ZNK10NFAOrUNode5matchERKSbIwSt11char_traitsIwESaIwEEP9WCMatcheri @ 752
;	NFACharNode::match(std::string const&, Matcher*, int, int) const
	_ZNK11NFACharNode5matchERKSsP7Matcherii @ 753
;	NFAEndUNode::match(std::basic_string<wchar_t, std::char_traits<wchar_t>, std::allocator<wchar_t> > const&, WCMatcher*, int) const
	_ZNK11NFAEndUNode5matchERKSbIwSt11char_traitsIwESaIwEEP9WCMatcheri @ 754
;	TiXmlHandle::FirstChild(char const*) const
	_ZNK11TiXmlHandle10FirstChildEPKc @ 755
;	TiXmlHandle::FirstChild() const
	_ZNK11TiXmlHandle10FirstChildEv @ 756
;	TiXmlHandle::ChildElement(char const*, int) const
	_ZNK11TiXmlHandle12ChildElementEPKci @ 757
;	TiXmlHandle::ChildElement(int) const
	_ZNK11TiXmlHandle12ChildElementEi @ 758
;	TiXmlHandle::FirstChildElement(char const*) const
	_ZNK11TiXmlHandle17FirstChildElementEPKc @ 759
;	TiXmlHandle::FirstChildElement() const
	_ZNK11TiXmlHandle17FirstChildElementEv @ 760
;	TiXmlHandle::Child(char const*, int) const
	_ZNK11TiXmlHandle5ChildEPKci @ 761
;	TiXmlHandle::Child(int) const
	_ZNK11TiXmlHandle5ChildEi @ 762
;	TiXmlString::data() const
	_ZNK11TiXmlString4dataEv @ 763
;	TiXmlString::find(char) const
	_ZNK11TiXmlString4findEc @ 764
;	TiXmlString::find(char, unsigned int) const
	_ZNK11TiXmlString4findEcj @ 765
;	TiXmlString::size() const
	_ZNK11TiXmlString4sizeEv @ 766
;	TiXmlString::c_str() const
	_ZNK11TiXmlString5c_strEv @ 767
;	TiXmlString::empty() const
	_ZNK11TiXmlString5emptyEv @ 768
;	TiXmlString::start() const
	_ZNK11TiXmlString5startEv @ 769
;	TiXmlString::finish() const
	_ZNK11TiXmlString6finishEv @ 770
;	TiXmlString::length() const
	_ZNK11TiXmlString6lengthEv @ 771
;	TiXmlString::capacity() const
	_ZNK11TiXmlString8capacityEv @ 772
;	TiXmlString::operator[](unsigned int) const
	_ZNK11TiXmlStringixEj @ 773
;	NFACharUNode::match(std::basic_string<wchar_t, std::char_traits<wchar_t>, std::allocator<wchar_t> > const&, WCMatcher*, int) const
	_ZNK12NFACharUNode5matchERKSbIwSt11char_traitsIwESaIwEEP9WCMatcheri @ 774
;	NFAClassNode::match(std::string const&, Matcher*, int, int) const
	_ZNK12NFAClassNode5matchERKSsP7Matcherii @ 775
;	NFAQuoteNode::match(std::string const&, Matcher*, int, int) const
	_ZNK12NFAQuoteNode5matchERKSsP7Matcherii @ 776
;	NFAStartNode::match(std::string const&, Matcher*, int, int) const
	_ZNK12NFAStartNode5matchERKSsP7Matcherii @ 777
;	TiXmlComment::Clone() const
	_ZNK12TiXmlComment5CloneEv @ 778
;	TiXmlComment::Print(_iobuf*, int) const
	_ZNK12TiXmlComment5PrintEP6_iobufi @ 779
;	TiXmlComment::Accept(TiXmlVisitor*) const
	_ZNK12TiXmlComment6AcceptEP12TiXmlVisitor @ 780
;	TiXmlComment::CopyTo(TiXmlComment*) const
	_ZNK12TiXmlComment6CopyToEPS_ @ 781
;	TiXmlComment::ToComment() const
	_ZNK12TiXmlComment9ToCommentEv @ 782
;	TiXmlElement::QueryIntAttribute(char const*, int*) const
	_ZNK12TiXmlElement17QueryIntAttributeEPKcPi @ 783
;	TiXmlElement::QueryDoubleAttribute(char const*, double*) const
	_ZNK12TiXmlElement20QueryDoubleAttributeEPKcPd @ 784
;	TiXmlElement::Clone() const
	_ZNK12TiXmlElement5CloneEv @ 785
;	TiXmlElement::Print(_iobuf*, int) const
	_ZNK12TiXmlElement5PrintEP6_iobufi @ 786
;	TiXmlElement::Accept(TiXmlVisitor*) const
	_ZNK12TiXmlElement6AcceptEP12TiXmlVisitor @ 787
;	TiXmlElement::CopyTo(TiXmlElement*) const
	_ZNK12TiXmlElement6CopyToEPS_ @ 788
;	TiXmlElement::GetText() const
	_ZNK12TiXmlElement7GetTextEv @ 789
;	TiXmlElement::Attribute(char const*) const
	_ZNK12TiXmlElement9AttributeEPKc @ 790
;	TiXmlElement::Attribute(char const*, double*) const
	_ZNK12TiXmlElement9AttributeEPKcPd @ 791
;	TiXmlElement::Attribute(char const*, int*) const
	_ZNK12TiXmlElement9AttributeEPKcPi @ 792
;	TiXmlElement::ToElement() const
	_ZNK12TiXmlElement9ToElementEv @ 793
;	TiXmlUnknown::Clone() const
	_ZNK12TiXmlUnknown5CloneEv @ 794
;	TiXmlUnknown::Print(_iobuf*, int) const
	_ZNK12TiXmlUnknown5PrintEP6_iobufi @ 795
;	TiXmlUnknown::Accept(TiXmlVisitor*) const
	_ZNK12TiXmlUnknown6AcceptEP12TiXmlVisitor @ 796
;	TiXmlUnknown::CopyTo(TiXmlUnknown*) const
	_ZNK12TiXmlUnknown6CopyToEPS_ @ 797
;	TiXmlUnknown::ToUnknown() const
	_ZNK12TiXmlUnknown9ToUnknownEv @ 798
;	NFAAcceptNode::match(std::string const&, Matcher*, int, int) const
	_ZNK13NFAAcceptNode5matchERKSsP7Matcherii @ 799
;	NFACICharNode::match(std::string const&, Matcher*, int, int) const
	_ZNK13NFACICharNode5matchERKSsP7Matcherii @ 800
;	NFAClassUNode::match(std::basic_string<wchar_t, std::char_traits<wchar_t>, std::allocator<wchar_t> > const&, WCMatcher*, int) const
	_ZNK13NFAClassUNode5matchERKSbIwSt11char_traitsIwESaIwEEP9WCMatcheri @ 801
;	NFAQuoteUNode::match(std::basic_string<wchar_t, std::char_traits<wchar_t>, std::allocator<wchar_t> > const&, WCMatcher*, int) const
	_ZNK13NFAQuoteUNode5matchERKSbIwSt11char_traitsIwESaIwEEP9WCMatcheri @ 802
;	NFAStartUNode::match(std::basic_string<wchar_t, std::char_traits<wchar_t>, std::allocator<wchar_t> > const&, WCMatcher*, int) const
	_ZNK13NFAStartUNode5matchERKSbIwSt11char_traitsIwESaIwEEP9WCMatcheri @ 803
;	TiXmlDocument::ToDocument() const
	_ZNK13TiXmlDocument10ToDocumentEv @ 804
;	TiXmlDocument::Clone() const
	_ZNK13TiXmlDocument5CloneEv @ 805
;	TiXmlDocument::Error() const
	_ZNK13TiXmlDocument5ErrorEv @ 806
;	TiXmlDocument::Print(_iobuf*, int) const
	_ZNK13TiXmlDocument5PrintEP6_iobufi @ 807
;	TiXmlDocument::Accept(TiXmlVisitor*) const
	_ZNK13TiXmlDocument6AcceptEP12TiXmlVisitor @ 808
;	TiXmlDocument::CopyTo(TiXmlDocument*) const
	_ZNK13TiXmlDocument6CopyToEPS_ @ 809
;	TiXmlDocument::TabSize() const
	_ZNK13TiXmlDocument7TabSizeEv @ 810
;	TiXmlDocument::SaveFile(_iobuf*) const
	_ZNK13TiXmlDocument8SaveFileEP6_iobuf @ 811
;	TiXmlDocument::SaveFile(char const*) const
	_ZNK13TiXmlDocument8SaveFileEPKc @ 812
;	TiXmlDocument::SaveFile() const
	_ZNK13TiXmlDocument8SaveFileEv @ 813
;	NFAAcceptUNode::match(std::basic_string<wchar_t, std::char_traits<wchar_t>, std::allocator<wchar_t> > const&, WCMatcher*, int) const
	_ZNK14NFAAcceptUNode5matchERKSbIwSt11char_traitsIwESaIwEEP9WCMatcheri @ 814
;	NFACICharUNode::match(std::basic_string<wchar_t, std::char_traits<wchar_t>, std::allocator<wchar_t> > const&, WCMatcher*, int) const
	_ZNK14NFACICharUNode5matchERKSbIwSt11char_traitsIwESaIwEEP9WCMatcheri @ 815
;	NFACIClassNode::match(std::string const&, Matcher*, int, int) const
	_ZNK14NFACIClassNode5matchERKSsP7Matcherii @ 816
;	NFACIQuoteNode::match(std::string const&, Matcher*, int, int) const
	_ZNK14NFACIQuoteNode5matchERKSsP7Matcherii @ 817
;	TiXmlAttribute::DoubleValue() const
	_ZNK14TiXmlAttribute11DoubleValueEv @ 818
;	TiXmlAttribute::QueryIntValue(int*) const
	_ZNK14TiXmlAttribute13QueryIntValueEPi @ 819
;	TiXmlAttribute::QueryDoubleValue(double*) const
	_ZNK14TiXmlAttribute16QueryDoubleValueEPd @ 820
;	TiXmlAttribute::Name() const
	_ZNK14TiXmlAttribute4NameEv @ 821
;	TiXmlAttribute::Next() const
	_ZNK14TiXmlAttribute4NextEv @ 822
;	TiXmlAttribute::Print(_iobuf*, int) const
	_ZNK14TiXmlAttribute5PrintEP6_iobufi @ 823
;	TiXmlAttribute::Print(_iobuf*, int, TiXmlString*) const
	_ZNK14TiXmlAttribute5PrintEP6_iobufiP11TiXmlString @ 824
;	TiXmlAttribute::Value() const
	_ZNK14TiXmlAttribute5ValueEv @ 825
;	TiXmlAttribute::IntValue() const
	_ZNK14TiXmlAttribute8IntValueEv @ 826
;	TiXmlAttribute::Previous() const
	_ZNK14TiXmlAttribute8PreviousEv @ 827
;	NFACIClassUNode::match(std::basic_string<wchar_t, std::char_traits<wchar_t>, std::allocator<wchar_t> > const&, WCMatcher*, int) const
	_ZNK15NFACIClassUNode5matchERKSbIwSt11char_traitsIwESaIwEEP9WCMatcheri @ 828
;	NFACIQuoteUNode::match(std::basic_string<wchar_t, std::char_traits<wchar_t>, std::allocator<wchar_t> > const&, WCMatcher*, int) const
	_ZNK15NFACIQuoteUNode5matchERKSbIwSt11char_traitsIwESaIwEEP9WCMatcheri @ 829
;	NFASubStartNode::match(std::string const&, Matcher*, int, int) const
	_ZNK15NFASubStartNode5matchERKSsP7Matcherii @ 830
;	NFAEndOfLineNode::match(std::string const&, Matcher*, int, int) const
	_ZNK16NFAEndOfLineNode5matchERKSsP7Matcherii @ 831
;	NFAGroupHeadNode::isGroupHeadNode() const
	_ZNK16NFAGroupHeadNode15isGroupHeadNodeEv @ 832
;	NFAGroupHeadNode::match(std::string const&, Matcher*, int, int) const
	_ZNK16NFAGroupHeadNode5matchERKSsP7Matcherii @ 833
;	NFAGroupLoopNode::matchGreedy(std::string const&, Matcher*, int, int) const
	_ZNK16NFAGroupLoopNode11matchGreedyERKSsP7Matcherii @ 834
;	NFAGroupLoopNode::matchPossessive(std::string const&, Matcher*, int, int) const
	_ZNK16NFAGroupLoopNode15matchPossessiveERKSsP7Matcherii @ 835
;	NFAGroupLoopNode::match(std::string const&, Matcher*, int, int) const
	_ZNK16NFAGroupLoopNode5matchERKSsP7Matcherii @ 836
;	NFAGroupLoopNode::matchLazy(std::string const&, Matcher*, int, int) const
	_ZNK16NFAGroupLoopNode9matchLazyERKSsP7Matcherii @ 837
;	NFAGroupTailNode::match(std::string const&, Matcher*, int, int) const
	_ZNK16NFAGroupTailNode5matchERKSsP7Matcherii @ 838
;	NFALookAheadNode::match(std::string const&, Matcher*, int, int) const
	_ZNK16NFALookAheadNode5matchERKSsP7Matcherii @ 839
;	NFAReferenceNode::match(std::string const&, Matcher*, int, int) const
	_ZNK16NFAReferenceNode5matchERKSsP7Matcherii @ 840
;	NFASubStartUNode::match(std::basic_string<wchar_t, std::char_traits<wchar_t>, std::allocator<wchar_t> > const&, WCMatcher*, int) const
	_ZNK16NFASubStartUNode5matchERKSbIwSt11char_traitsIwESaIwEEP9WCMatcheri @ 841
;	TiXmlDeclaration::ToDeclaration() const
	_ZNK16TiXmlDeclaration13ToDeclarationEv @ 842
;	TiXmlDeclaration::Clone() const
	_ZNK16TiXmlDeclaration5CloneEv @ 843
;	TiXmlDeclaration::Print(_iobuf*, int) const
	_ZNK16TiXmlDeclaration5PrintEP6_iobufi @ 844
;	TiXmlDeclaration::Print(_iobuf*, int, TiXmlString*) const
	_ZNK16TiXmlDeclaration5PrintEP6_iobufiP11TiXmlString @ 845
;	TiXmlDeclaration::Accept(TiXmlVisitor*) const
	_ZNK16TiXmlDeclaration6AcceptEP12TiXmlVisitor @ 846
;	TiXmlDeclaration::CopyTo(TiXmlDeclaration*) const
	_ZNK16TiXmlDeclaration6CopyToEPS_ @ 847
;	TiXmlDeclaration::Encoding() const
	_ZNK16TiXmlDeclaration8EncodingEv @ 848
;	NFAEndOfInputNode::match(std::string const&, Matcher*, int, int) const
	_ZNK17NFAEndOfInputNode5matchERKSsP7Matcherii @ 849
;	NFAEndOfLineUNode::match(std::basic_string<wchar_t, std::char_traits<wchar_t>, std::allocator<wchar_t> > const&, WCMatcher*, int) const
	_ZNK17NFAEndOfLineUNode5matchERKSbIwSt11char_traitsIwESaIwEEP9WCMatcheri @ 850
;	NFAEndOfMatchNode::match(std::string const&, Matcher*, int, int) const
	_ZNK17NFAEndOfMatchNode5matchERKSsP7Matcherii @ 851
;	NFAGroupHeadUNode::isGroupHeadNode() const
	_ZNK17NFAGroupHeadUNode15isGroupHeadNodeEv @ 852
;	NFAGroupHeadUNode::match(std::basic_string<wchar_t, std::char_traits<wchar_t>, std::allocator<wchar_t> > const&, WCMatcher*, int) const
	_ZNK17NFAGroupHeadUNode5matchERKSbIwSt11char_traitsIwESaIwEEP9WCMatcheri @ 853
;	NFAGroupLoopUNode::matchGreedy(std::basic_string<wchar_t, std::char_traits<wchar_t>, std::allocator<wchar_t> > const&, WCMatcher*, int) const
	_ZNK17NFAGroupLoopUNode11matchGreedyERKSbIwSt11char_traitsIwESaIwEEP9WCMatcheri @ 854
;	NFAGroupLoopUNode::matchPossessive(std::basic_string<wchar_t, std::char_traits<wchar_t>, std::allocator<wchar_t> > const&, WCMatcher*, int) const
	_ZNK17NFAGroupLoopUNode15matchPossessiveERKSbIwSt11char_traitsIwESaIwEEP9WCMatcheri @ 855
;	NFAGroupLoopUNode::match(std::basic_string<wchar_t, std::char_traits<wchar_t>, std::allocator<wchar_t> > const&, WCMatcher*, int) const
	_ZNK17NFAGroupLoopUNode5matchERKSbIwSt11char_traitsIwESaIwEEP9WCMatcheri @ 856
;	NFAGroupLoopUNode::matchLazy(std::basic_string<wchar_t, std::char_traits<wchar_t>, std::allocator<wchar_t> > const&, WCMatcher*, int) const
	_ZNK17NFAGroupLoopUNode9matchLazyERKSbIwSt11char_traitsIwESaIwEEP9WCMatcheri @ 857
;	NFAGroupTailUNode::match(std::basic_string<wchar_t, std::char_traits<wchar_t>, std::allocator<wchar_t> > const&, WCMatcher*, int) const
	_ZNK17NFAGroupTailUNode5matchERKSbIwSt11char_traitsIwESaIwEEP9WCMatcheri @ 858
;	NFALookAheadUNode::match(std::basic_string<wchar_t, std::char_traits<wchar_t>, std::allocator<wchar_t> > const&, WCMatcher*, int) const
	_ZNK17NFALookAheadUNode5matchERKSbIwSt11char_traitsIwESaIwEEP9WCMatcheri @ 859
;	NFALookBehindNode::match(std::string const&, Matcher*, int, int) const
	_ZNK17NFALookBehindNode5matchERKSsP7Matcherii @ 860
;	NFAQuantifierNode::match(std::string const&, Matcher*, int, int) const
	_ZNK17NFAQuantifierNode5matchERKSsP7Matcherii @ 861
;	NFAReferenceUNode::match(std::basic_string<wchar_t, std::char_traits<wchar_t>, std::allocator<wchar_t> > const&, WCMatcher*, int) const
	_ZNK17NFAReferenceUNode5matchERKSbIwSt11char_traitsIwESaIwEEP9WCMatcheri @ 862
;	TiXmlAttributeSet::Find(char const*) const
	_ZNK17TiXmlAttributeSet4FindEPKc @ 863
;	TiXmlAttributeSet::First() const
	_ZNK17TiXmlAttributeSet5FirstEv @ 864
;	NFAEndOfInputUNode::match(std::basic_string<wchar_t, std::char_traits<wchar_t>, std::allocator<wchar_t> > const&, WCMatcher*, int) const
	_ZNK18NFAEndOfInputUNode5matchERKSbIwSt11char_traitsIwESaIwEEP9WCMatcheri @ 865
;	NFAEndOfMatchUNode::match(std::basic_string<wchar_t, std::char_traits<wchar_t>, std::allocator<wchar_t> > const&, WCMatcher*, int) const
	_ZNK18NFAEndOfMatchUNode5matchERKSbIwSt11char_traitsIwESaIwEEP9WCMatcheri @ 866
;	NFALookBehindUNode::match(std::basic_string<wchar_t, std::char_traits<wchar_t>, std::allocator<wchar_t> > const&, WCMatcher*, int) const
	_ZNK18NFALookBehindUNode5matchERKSbIwSt11char_traitsIwESaIwEEP9WCMatcheri @ 867
;	NFAQuantifierUNode::match(std::basic_string<wchar_t, std::char_traits<wchar_t>, std::allocator<wchar_t> > const&, WCMatcher*, int) const
	_ZNK18NFAQuantifierUNode5matchERKSbIwSt11char_traitsIwESaIwEEP9WCMatcheri @ 868
;	NFAStartOfLineNode::match(std::string const&, Matcher*, int, int) const
	_ZNK18NFAStartOfLineNode5matchERKSsP7Matcherii @ 869
;	NFAStartOfInputNode::isStartOfInputNode() const
	_ZNK19NFAStartOfInputNode18isStartOfInputNodeEv @ 870
;	NFAStartOfInputNode::match(std::string const&, Matcher*, int, int) const
	_ZNK19NFAStartOfInputNode5matchERKSsP7Matcherii @ 871
;	NFAStartOfLineUNode::match(std::basic_string<wchar_t, std::char_traits<wchar_t>, std::allocator<wchar_t> > const&, WCMatcher*, int) const
	_ZNK19NFAStartOfLineUNode5matchERKSbIwSt11char_traitsIwESaIwEEP9WCMatcheri @ 872
;	NFAWordBoundaryNode::match(std::string const&, Matcher*, int, int) const
	_ZNK19NFAWordBoundaryNode5matchERKSsP7Matcherii @ 873
;	NFAStartOfInputUNode::isStartOfInputNode() const
	_ZNK20NFAStartOfInputUNode18isStartOfInputNodeEv @ 874
;	NFAStartOfInputUNode::match(std::basic_string<wchar_t, std::char_traits<wchar_t>, std::allocator<wchar_t> > const&, WCMatcher*, int) const
	_ZNK20NFAStartOfInputUNode5matchERKSbIwSt11char_traitsIwESaIwEEP9WCMatcheri @ 875
;	NFAWordBoundaryUNode::match(std::basic_string<wchar_t, std::char_traits<wchar_t>, std::allocator<wchar_t> > const&, WCMatcher*, int) const
	_ZNK20NFAWordBoundaryUNode5matchERKSbIwSt11char_traitsIwESaIwEEP9WCMatcheri @ 876
;	NFALazyQuantifierNode::match(std::string const&, Matcher*, int, int) const
	_ZNK21NFALazyQuantifierNode5matchERKSsP7Matcherii @ 877
;	NFALazyQuantifierUNode::match(std::basic_string<wchar_t, std::char_traits<wchar_t>, std::allocator<wchar_t> > const&, WCMatcher*, int) const
	_ZNK22NFALazyQuantifierUNode5matchERKSbIwSt11char_traitsIwESaIwEEP9WCMatcheri @ 878
;	NFAGreedyQuantifierNode::matchInternal(std::string const&, Matcher*, int, int, int) const
	_ZNK23NFAGreedyQuantifierNode13matchInternalERKSsP7Matcheriii @ 879
;	NFAGreedyQuantifierNode::match(std::string const&, Matcher*, int, int) const
	_ZNK23NFAGreedyQuantifierNode5matchERKSsP7Matcherii @ 880
;	NFAGreedyQuantifierUNode::matchInternal(std::basic_string<wchar_t, std::char_traits<wchar_t>, std::allocator<wchar_t> > const&, WCMatcher*, int, int) const
	_ZNK24NFAGreedyQuantifierUNode13matchInternalERKSbIwSt11char_traitsIwESaIwEEP9WCMatcherii @ 881
;	NFAGreedyQuantifierUNode::match(std::basic_string<wchar_t, std::char_traits<wchar_t>, std::allocator<wchar_t> > const&, WCMatcher*, int) const
	_ZNK24NFAGreedyQuantifierUNode5matchERKSbIwSt11char_traitsIwESaIwEEP9WCMatcheri @ 882
;	NFAGroupLoopPrologueNode::match(std::string const&, Matcher*, int, int) const
	_ZNK24NFAGroupLoopPrologueNode5matchERKSsP7Matcherii @ 883
;	NFAGroupLoopPrologueUNode::match(std::basic_string<wchar_t, std::char_traits<wchar_t>, std::allocator<wchar_t> > const&, WCMatcher*, int) const
	_ZNK25NFAGroupLoopPrologueUNode5matchERKSbIwSt11char_traitsIwESaIwEEP9WCMatcheri @ 884
;	NFAPossessiveQuantifierNode::match(std::string const&, Matcher*, int, int) const
	_ZNK27NFAPossessiveQuantifierNode5matchERKSsP7Matcherii @ 885
;	NFAPossessiveQuantifierUNode::match(std::basic_string<wchar_t, std::char_traits<wchar_t>, std::allocator<wchar_t> > const&, WCMatcher*, int) const
	_ZNK28NFAPossessiveQuantifierUNode5matchERKSbIwSt11char_traitsIwESaIwEEP9WCMatcheri @ 886
;	Matcher::getEndingIndex(int) const
	_ZNK7Matcher14getEndingIndexEi @ 887
;	Matcher::getStartingIndex(int) const
	_ZNK7Matcher16getStartingIndexEi @ 888
;	Matcher::getText() const
	_ZNK7Matcher7getTextEv @ 889
;	Matcher::getFlags() const
	_ZNK7Matcher8getFlagsEv @ 890
;	Matcher::getGroup(int) const
	_ZNK7Matcher8getGroupEi @ 891
;	Matcher::getGroups(bool) const
	_ZNK7Matcher9getGroupsEb @ 892
;	NFANode::isGroupHeadNode() const
	_ZNK7NFANode15isGroupHeadNodeEv @ 893
;	NFANode::isStartOfInputNode() const
	_ZNK7NFANode18isStartOfInputNodeEv @ 894
;	Pattern::classUnion(std::string, std::string) const
	_ZNK7Pattern10classUnionESsSs @ 895
;	Pattern::getPattern() const
	_ZNK7Pattern10getPatternEv @ 896
;	Pattern::classNegate(std::string) const
	_ZNK7Pattern11classNegateESs @ 897
;	Pattern::classIntersect(std::string, std::string) const
	_ZNK7Pattern14classIntersectESsSs @ 898
;	Pattern::classCreateRange(char, char) const
	_ZNK7Pattern16classCreateRangeEcc @ 899
;	Pattern::getFlags() const
	_ZNK7Pattern8getFlagsEv @ 900
;	NFAUNode::isGroupHeadNode() const
	_ZNK8NFAUNode15isGroupHeadNodeEv @ 901
;	NFAUNode::isStartOfInputNode() const
	_ZNK8NFAUNode18isStartOfInputNodeEv @ 902
;	NFAOrNode::match(std::string const&, Matcher*, int, int) const
	_ZNK9NFAOrNode5matchERKSsP7Matcherii @ 903
;	TiXmlNode::FirstChild(char const*) const
	_ZNK9TiXmlNode10FirstChildEPKc @ 904
;	TiXmlNode::FirstChild() const
	_ZNK9TiXmlNode10FirstChildEv @ 905
;	TiXmlNode::ToDocument() const
	_ZNK9TiXmlNode10ToDocumentEv @ 906
;	TiXmlNode::GetDocument() const
	_ZNK9TiXmlNode11GetDocumentEv @ 907
;	TiXmlNode::NextSibling(char const*) const
	_ZNK9TiXmlNode11NextSiblingEPKc @ 908
;	TiXmlNode::NextSibling() const
	_ZNK9TiXmlNode11NextSiblingEv @ 909
;	TiXmlNode::ToDeclaration() const
	_ZNK9TiXmlNode13ToDeclarationEv @ 910
;	TiXmlNode::IterateChildren(TiXmlNode const*) const
	_ZNK9TiXmlNode15IterateChildrenEPKS_ @ 911
;	TiXmlNode::IterateChildren(char const*, TiXmlNode const*) const
	_ZNK9TiXmlNode15IterateChildrenEPKcPKS_ @ 912
;	TiXmlNode::PreviousSibling(char const*) const
	_ZNK9TiXmlNode15PreviousSiblingEPKc @ 913
;	TiXmlNode::FirstChildElement(char const*) const
	_ZNK9TiXmlNode17FirstChildElementEPKc @ 914
;	TiXmlNode::FirstChildElement() const
	_ZNK9TiXmlNode17FirstChildElementEv @ 915
;	TiXmlNode::NextSiblingElement(char const*) const
	_ZNK9TiXmlNode18NextSiblingElementEPKc @ 916
;	TiXmlNode::NextSiblingElement() const
	_ZNK9TiXmlNode18NextSiblingElementEv @ 917
;	TiXmlNode::Type() const
	_ZNK9TiXmlNode4TypeEv @ 918
;	TiXmlNode::Value() const
	_ZNK9TiXmlNode5ValueEv @ 919
;	TiXmlNode::CopyTo(TiXmlNode*) const
	_ZNK9TiXmlNode6CopyToEPS_ @ 920
;	TiXmlNode::ToText() const
	_ZNK9TiXmlNode6ToTextEv @ 921
;	TiXmlNode::LastChild(char const*) const
	_ZNK9TiXmlNode9LastChildEPKc @ 922
;	TiXmlNode::LastChild() const
	_ZNK9TiXmlNode9LastChildEv @ 923
;	TiXmlNode::ToComment() const
	_ZNK9TiXmlNode9ToCommentEv @ 924
;	TiXmlNode::ToElement() const
	_ZNK9TiXmlNode9ToElementEv @ 925
;	TiXmlNode::ToUnknown() const
	_ZNK9TiXmlNode9ToUnknownEv @ 926
;	TiXmlNode::ValueTStr() const
	_ZNK9TiXmlNode9ValueTStrEv @ 927
;	TiXmlText::Blank() const
	_ZNK9TiXmlText5BlankEv @ 928
;	TiXmlText::CDATA() const
	_ZNK9TiXmlText5CDATAEv @ 929
;	TiXmlText::Clone() const
	_ZNK9TiXmlText5CloneEv @ 930
;	TiXmlText::Print(_iobuf*, int) const
	_ZNK9TiXmlText5PrintEP6_iobufi @ 931
;	TiXmlText::Accept(TiXmlVisitor*) const
	_ZNK9TiXmlText6AcceptEP12TiXmlVisitor @ 932
;	TiXmlText::CopyTo(TiXmlText*) const
	_ZNK9TiXmlText6CopyToEPS_ @ 933
;	TiXmlText::ToText() const
	_ZNK9TiXmlText6ToTextEv @ 934
;	WCMatcher::getEndingIndex(int) const
	_ZNK9WCMatcher14getEndingIndexEi @ 935
;	WCMatcher::getStartingIndex(int) const
	_ZNK9WCMatcher16getStartingIndexEi @ 936
;	WCMatcher::getText() const
	_ZNK9WCMatcher7getTextEv @ 937
;	WCMatcher::getFlags() const
	_ZNK9WCMatcher8getFlagsEv @ 938
;	WCMatcher::getGroup(int) const
	_ZNK9WCMatcher8getGroupEi @ 939
;	WCMatcher::getGroups(bool) const
	_ZNK9WCMatcher9getGroupsEb @ 940
;	WCPattern::classUnion(std::basic_string<wchar_t, std::char_traits<wchar_t>, std::allocator<wchar_t> >, std::basic_string<wchar_t, std::char_traits<wchar_t>, std::allocator<wchar_t> >) const
	_ZNK9WCPattern10classUnionESbIwSt11char_traitsIwESaIwEES3_ @ 941
;	WCPattern::classNegate(std::basic_string<wchar_t, std::char_traits<wchar_t>, std::allocator<wchar_t> >) const
	_ZNK9WCPattern11classNegateESbIwSt11char_traitsIwESaIwEE @ 942
;	WCPattern::getWCPattern() const
	_ZNK9WCPattern12getWCPatternEv @ 943
;	WCPattern::classIntersect(std::basic_string<wchar_t, std::char_traits<wchar_t>, std::allocator<wchar_t> >, std::basic_string<wchar_t, std::char_traits<wchar_t>, std::allocator<wchar_t> >) const
	_ZNK9WCPattern14classIntersectESbIwSt11char_traitsIwESaIwEES3_ @ 944
;	WCPattern::classCreateRange(wchar_t, wchar_t) const
	_ZNK9WCPattern16classCreateRangeEww @ 945
;	WCPattern::getFlags() const
	_ZNK9WCPattern8getFlagsEv @ 946
;	__gnu_cxx::__normal_iterator<std::basic_string<wchar_t, std::char_traits<wchar_t>, std::allocator<wchar_t> > const*, std::vector<std::basic_string<wchar_t, std::char_traits<wchar_t>, std::allocator<wchar_t> >, std::allocator<std::basic_string<wchar_t, std::char_traits<wchar_t>, std::allocator<wchar_t> > > > >::base() const
	_ZNK9__gnu_cxx17__normal_iteratorIPKSbIwSt11char_traitsIwESaIwEESt6vectorIS4_SaIS4_EEE4baseEv @ 947
;	__gnu_cxx::__normal_iterator<std::basic_string<wchar_t, std::char_traits<wchar_t>, std::allocator<wchar_t> > const*, std::vector<std::basic_string<wchar_t, std::char_traits<wchar_t>, std::allocator<wchar_t> >, std::allocator<std::basic_string<wchar_t, std::char_traits<wchar_t>, std::allocator<wchar_t> > > > >::operator*() const
	_ZNK9__gnu_cxx17__normal_iteratorIPKSbIwSt11char_traitsIwESaIwEESt6vectorIS4_SaIS4_EEEdeEv @ 948
;	__gnu_cxx::__normal_iterator<std::basic_string<wchar_t, std::char_traits<wchar_t>, std::allocator<wchar_t> > const*, std::vector<std::basic_string<wchar_t, std::char_traits<wchar_t>, std::allocator<wchar_t> >, std::allocator<std::basic_string<wchar_t, std::char_traits<wchar_t>, std::allocator<wchar_t> > > > >::operator+(int const&) const
	_ZNK9__gnu_cxx17__normal_iteratorIPKSbIwSt11char_traitsIwESaIwEESt6vectorIS4_SaIS4_EEEplERKi @ 949
;	__gnu_cxx::__normal_iterator<std::string const*, std::vector<std::string, std::allocator<std::string> > >::base() const
	_ZNK9__gnu_cxx17__normal_iteratorIPKSsSt6vectorISsSaISsEEE4baseEv @ 950
;	__gnu_cxx::__normal_iterator<std::string const*, std::vector<std::string, std::allocator<std::string> > >::operator*() const
	_ZNK9__gnu_cxx17__normal_iteratorIPKSsSt6vectorISsSaISsEEEdeEv @ 951
;	__gnu_cxx::__normal_iterator<std::string const*, std::vector<std::string, std::allocator<std::string> > >::operator+(int const&) const
	_ZNK9__gnu_cxx17__normal_iteratorIPKSsSt6vectorISsSaISsEEEplERKi @ 952
;	__gnu_cxx::__normal_iterator<std::basic_string<wchar_t, std::char_traits<wchar_t>, std::allocator<wchar_t> >*, std::vector<std::basic_string<wchar_t, std::char_traits<wchar_t>, std::allocator<wchar_t> >, std::allocator<std::basic_string<wchar_t, std::char_traits<wchar_t>, std::allocator<wchar_t> > > > >::base() const
	_ZNK9__gnu_cxx17__normal_iteratorIPSbIwSt11char_traitsIwESaIwEESt6vectorIS4_SaIS4_EEE4baseEv @ 953
;	__gnu_cxx::__normal_iterator<std::basic_string<wchar_t, std::char_traits<wchar_t>, std::allocator<wchar_t> >*, std::vector<std::basic_string<wchar_t, std::char_traits<wchar_t>, std::allocator<wchar_t> >, std::allocator<std::basic_string<wchar_t, std::char_traits<wchar_t>, std::allocator<wchar_t> > > > >::operator*() const
	_ZNK9__gnu_cxx17__normal_iteratorIPSbIwSt11char_traitsIwESaIwEESt6vectorIS4_SaIS4_EEEdeEv @ 954
;	__gnu_cxx::__normal_iterator<std::string*, std::vector<std::string, std::allocator<std::string> > >::base() const
	_ZNK9__gnu_cxx17__normal_iteratorIPSsSt6vectorISsSaISsEEE4baseEv @ 955
;	__gnu_cxx::__normal_iterator<std::string*, std::vector<std::string, std::allocator<std::string> > >::operator*() const
	_ZNK9__gnu_cxx17__normal_iteratorIPSsSt6vectorISsSaISsEEEdeEv @ 956
;	__gnu_cxx::__normal_iterator<char*, std::string>::base() const
	_ZNK9__gnu_cxx17__normal_iteratorIPcSsE4baseEv @ 957
;	__gnu_cxx::__normal_iterator<char*, std::string>::operator*() const
	_ZNK9__gnu_cxx17__normal_iteratorIPcSsEdeEv @ 958
;	__gnu_cxx::__normal_iterator<char*, std::string>::operator-(int const&) const
	_ZNK9__gnu_cxx17__normal_iteratorIPcSsEmiERKi @ 959
;	__gnu_cxx::__normal_iterator<char*, std::string>::operator+(int const&) const
	_ZNK9__gnu_cxx17__normal_iteratorIPcSsEplERKi @ 960
;	__gnu_cxx::__normal_iterator<wchar_t*, std::basic_string<wchar_t, std::char_traits<wchar_t>, std::allocator<wchar_t> > >::base() const
	_ZNK9__gnu_cxx17__normal_iteratorIPwSbIwSt11char_traitsIwESaIwEEE4baseEv @ 961
;	__gnu_cxx::__normal_iterator<wchar_t*, std::basic_string<wchar_t, std::char_traits<wchar_t>, std::allocator<wchar_t> > >::operator*() const
	_ZNK9__gnu_cxx17__normal_iteratorIPwSbIwSt11char_traitsIwESaIwEEEdeEv @ 962
;	__gnu_cxx::__normal_iterator<wchar_t*, std::basic_string<wchar_t, std::char_traits<wchar_t>, std::allocator<wchar_t> > >::operator-(int const&) const
	_ZNK9__gnu_cxx17__normal_iteratorIPwSbIwSt11char_traitsIwESaIwEEEmiERKi @ 963
;	__gnu_cxx::__normal_iterator<wchar_t*, std::basic_string<wchar_t, std::char_traits<wchar_t>, std::allocator<wchar_t> > >::operator+(int const&) const
	_ZNK9__gnu_cxx17__normal_iteratorIPwSbIwSt11char_traitsIwESaIwEEEplERKi @ 964
;	std::basic_string<wchar_t, std::char_traits<wchar_t>, std::allocator<wchar_t> >::get_allocator() const
	_ZNKSbIwSt11char_traitsIwESaIwEE13get_allocatorEv @ 965
;	std::basic_string<wchar_t, std::char_traits<wchar_t>, std::allocator<wchar_t> >::_Rep::_M_is_leaked() const
	_ZNKSbIwSt11char_traitsIwESaIwEE4_Rep12_M_is_leakedEv @ 966
;	std::basic_string<wchar_t, std::char_traits<wchar_t>, std::allocator<wchar_t> >::_Rep::_M_is_shared() const
	_ZNKSbIwSt11char_traitsIwESaIwEE4_Rep12_M_is_sharedEv @ 967
;	std::basic_string<wchar_t, std::char_traits<wchar_t>, std::allocator<wchar_t> >::data() const
	_ZNKSbIwSt11char_traitsIwESaIwEE4dataEv @ 968
;	std::basic_string<wchar_t, std::char_traits<wchar_t>, std::allocator<wchar_t> >::size() const
	_ZNKSbIwSt11char_traitsIwESaIwEE4sizeEv @ 969
;	std::basic_string<wchar_t, std::char_traits<wchar_t>, std::allocator<wchar_t> >::c_str() const
	_ZNKSbIwSt11char_traitsIwESaIwEE5c_strEv @ 970
;	std::basic_string<wchar_t, std::char_traits<wchar_t>, std::allocator<wchar_t> >::_M_rep() const
	_ZNKSbIwSt11char_traitsIwESaIwEE6_M_repEv @ 971
;	std::basic_string<wchar_t, std::char_traits<wchar_t>, std::allocator<wchar_t> >::substr(unsigned int, unsigned int) const
	_ZNKSbIwSt11char_traitsIwESaIwEE6substrEjj @ 972
;	std::basic_string<wchar_t, std::char_traits<wchar_t>, std::allocator<wchar_t> >::_M_data() const
	_ZNKSbIwSt11char_traitsIwESaIwEE7_M_dataEv @ 973
;	std::basic_string<wchar_t, std::char_traits<wchar_t>, std::allocator<wchar_t> >::compare(wchar_t const*) const
	_ZNKSbIwSt11char_traitsIwESaIwEE7compareEPKw @ 974
;	std::basic_string<wchar_t, std::char_traits<wchar_t>, std::allocator<wchar_t> >::compare(std::basic_string<wchar_t, std::char_traits<wchar_t>, std::allocator<wchar_t> > const&) const
	_ZNKSbIwSt11char_traitsIwESaIwEE7compareERKS2_ @ 975
;	std::basic_string<wchar_t, std::char_traits<wchar_t>, std::allocator<wchar_t> >::_M_check(unsigned int, char const*) const
	_ZNKSbIwSt11char_traitsIwESaIwEE8_M_checkEjPKc @ 976
;	std::basic_string<wchar_t, std::char_traits<wchar_t>, std::allocator<wchar_t> >::_M_limit(unsigned int, unsigned int) const
	_ZNKSbIwSt11char_traitsIwESaIwEE8_M_limitEjj @ 977
;	std::basic_string<wchar_t, std::char_traits<wchar_t>, std::allocator<wchar_t> >::capacity() const
	_ZNKSbIwSt11char_traitsIwESaIwEE8capacityEv @ 978
;	std::basic_string<wchar_t, std::char_traits<wchar_t>, std::allocator<wchar_t> >::max_size() const
	_ZNKSbIwSt11char_traitsIwESaIwEE8max_sizeEv @ 979
;	std::basic_string<wchar_t, std::char_traits<wchar_t>, std::allocator<wchar_t> >::operator[](unsigned int) const
	_ZNKSbIwSt11char_traitsIwESaIwEEixEj @ 980
;	std::_Select1st<std::pair<NFANode* const, bool> >::operator()(std::pair<NFANode* const, bool> const&) const
	_ZNKSt10_Select1stISt4pairIKP7NFANodebEEclERKS4_ @ 981
;	std::_Select1st<std::pair<NFAUNode* const, bool> >::operator()(std::pair<NFAUNode* const, bool> const&) const
	_ZNKSt10_Select1stISt4pairIKP8NFAUNodebEEclERKS4_ @ 982
;	std::_Select1st<std::pair<std::basic_string<wchar_t, std::char_traits<wchar_t>, std::allocator<wchar_t> > const, WCPattern*> >::operator()(std::pair<std::basic_string<wchar_t, std::char_traits<wchar_t>, std::allocator<wchar_t> > const, WCPattern*> const&) const
	_ZNKSt10_Select1stISt4pairIKSbIwSt11char_traitsIwESaIwEEP9WCPatternEEclERKS8_ @ 983
;	std::_Select1st<std::pair<std::basic_string<wchar_t, std::char_traits<wchar_t>, std::allocator<wchar_t> > const, std::pair<std::basic_string<wchar_t, std::char_traits<wchar_t>, std::allocator<wchar_t> >, unsigned long> > >::operator()(std::pair<std::basic_string<wchar_t, std::char_traits<wchar_t>, std::allocator<wchar_t> > const, std::pair<std::basic_string<wchar_t, std::char_traits<wchar_t>, std::allocator<wchar_t> >, unsigned long> > const&) const
	_ZNKSt10_Select1stISt4pairIKSbIwSt11char_traitsIwESaIwEES0_IS4_mEEEclERKS7_ @ 984
;	std::_Select1st<std::pair<std::string const, Pattern*> >::operator()(std::pair<std::string const, Pattern*> const&) const
	_ZNKSt10_Select1stISt4pairIKSsP7PatternEEclERKS4_ @ 985
;	std::_Select1st<std::pair<std::string const, std::pair<std::string, unsigned long> > >::operator()(std::pair<std::string const, std::pair<std::string, unsigned long> > const&) const
	_ZNKSt10_Select1stISt4pairIKSsS0_ISsmEEEclERKS3_ @ 986
;	std::_Select1st<std::pair<char const, bool> >::operator()(std::pair<char const, bool> const&) const
	_ZNKSt10_Select1stISt4pairIKcbEEclERKS2_ @ 987
;	std::_Select1st<std::pair<wchar_t const, bool> >::operator()(std::pair<wchar_t const, bool> const&) const
	_ZNKSt10_Select1stISt4pairIKwbEEclERKS2_ @ 988
;	std::_Rb_tree_iterator<std::pair<NFANode* const, bool> >::operator*() const
	_ZNKSt17_Rb_tree_iteratorISt4pairIKP7NFANodebEEdeEv @ 989
;	std::_Rb_tree_iterator<std::pair<NFANode* const, bool> >::operator==(std::_Rb_tree_iterator<std::pair<NFANode* const, bool> > const&) const
	_ZNKSt17_Rb_tree_iteratorISt4pairIKP7NFANodebEEeqERKS5_ @ 990
;	std::_Rb_tree_iterator<std::pair<NFANode* const, bool> >::operator!=(std::_Rb_tree_iterator<std::pair<NFANode* const, bool> > const&) const
	_ZNKSt17_Rb_tree_iteratorISt4pairIKP7NFANodebEEneERKS5_ @ 991
;	std::_Rb_tree_iterator<std::pair<NFANode* const, bool> >::operator->() const
	_ZNKSt17_Rb_tree_iteratorISt4pairIKP7NFANodebEEptEv @ 992
;	std::_Rb_tree_iterator<std::pair<NFAUNode* const, bool> >::operator*() const
	_ZNKSt17_Rb_tree_iteratorISt4pairIKP8NFAUNodebEEdeEv @ 993
;	std::_Rb_tree_iterator<std::pair<NFAUNode* const, bool> >::operator==(std::_Rb_tree_iterator<std::pair<NFAUNode* const, bool> > const&) const
	_ZNKSt17_Rb_tree_iteratorISt4pairIKP8NFAUNodebEEeqERKS5_ @ 994
;	std::_Rb_tree_iterator<std::pair<NFAUNode* const, bool> >::operator!=(std::_Rb_tree_iterator<std::pair<NFAUNode* const, bool> > const&) const
	_ZNKSt17_Rb_tree_iteratorISt4pairIKP8NFAUNodebEEneERKS5_ @ 995
;	std::_Rb_tree_iterator<std::pair<NFAUNode* const, bool> >::operator->() const
	_ZNKSt17_Rb_tree_iteratorISt4pairIKP8NFAUNodebEEptEv @ 996
;	std::_Rb_tree_iterator<std::pair<std::basic_string<wchar_t, std::char_traits<wchar_t>, std::allocator<wchar_t> > const, WCPattern*> >::operator*() const
	_ZNKSt17_Rb_tree_iteratorISt4pairIKSbIwSt11char_traitsIwESaIwEEP9WCPatternEEdeEv @ 997
;	std::_Rb_tree_iterator<std::pair<std::basic_string<wchar_t, std::char_traits<wchar_t>, std::allocator<wchar_t> > const, WCPattern*> >::operator==(std::_Rb_tree_iterator<std::pair<std::basic_string<wchar_t, std::char_traits<wchar_t>, std::allocator<wchar_t> > const, WCPattern*> > const&) const
	_ZNKSt17_Rb_tree_iteratorISt4pairIKSbIwSt11char_traitsIwESaIwEEP9WCPatternEEeqERKS9_ @ 998
;	std::_Rb_tree_iterator<std::pair<std::basic_string<wchar_t, std::char_traits<wchar_t>, std::allocator<wchar_t> > const, WCPattern*> >::operator!=(std::_Rb_tree_iterator<std::pair<std::basic_string<wchar_t, std::char_traits<wchar_t>, std::allocator<wchar_t> > const, WCPattern*> > const&) const
	_ZNKSt17_Rb_tree_iteratorISt4pairIKSbIwSt11char_traitsIwESaIwEEP9WCPatternEEneERKS9_ @ 999
;	std::_Rb_tree_iterator<std::pair<std::basic_string<wchar_t, std::char_traits<wchar_t>, std::allocator<wchar_t> > const, WCPattern*> >::operator->() const
	_ZNKSt17_Rb_tree_iteratorISt4pairIKSbIwSt11char_traitsIwESaIwEEP9WCPatternEEptEv @ 1000
;	std::_Rb_tree_iterator<std::pair<std::basic_string<wchar_t, std::char_traits<wchar_t>, std::allocator<wchar_t> > const, std::pair<std::basic_string<wchar_t, std::char_traits<wchar_t>, std::allocator<wchar_t> >, unsigned long> > >::operator*() const
	_ZNKSt17_Rb_tree_iteratorISt4pairIKSbIwSt11char_traitsIwESaIwEES0_IS4_mEEEdeEv @ 1001
;	std::_Rb_tree_iterator<std::pair<std::basic_string<wchar_t, std::char_traits<wchar_t>, std::allocator<wchar_t> > const, std::pair<std::basic_string<wchar_t, std::char_traits<wchar_t>, std::allocator<wchar_t> >, unsigned long> > >::operator==(std::_Rb_tree_iterator<std::pair<std::basic_string<wchar_t, std::char_traits<wchar_t>, std::allocator<wchar_t> > const, std::pair<std::basic_string<wchar_t, std::char_traits<wchar_t>, std::allocator<wchar_t> >, unsigned long> > > const&) const
	_ZNKSt17_Rb_tree_iteratorISt4pairIKSbIwSt11char_traitsIwESaIwEES0_IS4_mEEEeqERKS8_ @ 1002
;	std::_Rb_tree_iterator<std::pair<std::string const, Pattern*> >::operator*() const
	_ZNKSt17_Rb_tree_iteratorISt4pairIKSsP7PatternEEdeEv @ 1003
;	std::_Rb_tree_iterator<std::pair<std::string const, Pattern*> >::operator==(std::_Rb_tree_iterator<std::pair<std::string const, Pattern*> > const&) const
	_ZNKSt17_Rb_tree_iteratorISt4pairIKSsP7PatternEEeqERKS5_ @ 1004
;	std::_Rb_tree_iterator<std::pair<std::string const, Pattern*> >::operator!=(std::_Rb_tree_iterator<std::pair<std::string const, Pattern*> > const&) const
	_ZNKSt17_Rb_tree_iteratorISt4pairIKSsP7PatternEEneERKS5_ @ 1005
;	std::_Rb_tree_iterator<std::pair<std::string const, Pattern*> >::operator->() const
	_ZNKSt17_Rb_tree_iteratorISt4pairIKSsP7PatternEEptEv @ 1006
;	std::_Rb_tree_iterator<std::pair<std::string const, std::pair<std::string, unsigned long> > >::operator*() const
	_ZNKSt17_Rb_tree_iteratorISt4pairIKSsS0_ISsmEEEdeEv @ 1007
;	std::_Rb_tree_iterator<std::pair<std::string const, std::pair<std::string, unsigned long> > >::operator==(std::_Rb_tree_iterator<std::pair<std::string const, std::pair<std::string, unsigned long> > > const&) const
	_ZNKSt17_Rb_tree_iteratorISt4pairIKSsS0_ISsmEEEeqERKS4_ @ 1008
;	std::_Rb_tree_iterator<std::pair<char const, bool> >::operator*() const
	_ZNKSt17_Rb_tree_iteratorISt4pairIKcbEEdeEv @ 1009
;	std::_Rb_tree_iterator<std::pair<char const, bool> >::operator==(std::_Rb_tree_iterator<std::pair<char const, bool> > const&) const
	_ZNKSt17_Rb_tree_iteratorISt4pairIKcbEEeqERKS3_ @ 1010
;	std::_Rb_tree_iterator<std::pair<wchar_t const, bool> >::operator*() const
	_ZNKSt17_Rb_tree_iteratorISt4pairIKwbEEdeEv @ 1011
;	std::_Rb_tree_iterator<std::pair<wchar_t const, bool> >::operator==(std::_Rb_tree_iterator<std::pair<wchar_t const, bool> > const&) const
	_ZNKSt17_Rb_tree_iteratorISt4pairIKwbEEeqERKS3_ @ 1012
;	std::_Rb_tree_const_iterator<std::pair<char const, bool> >::operator==(std::_Rb_tree_const_iterator<std::pair<char const, bool> > const&) const
	_ZNKSt23_Rb_tree_const_iteratorISt4pairIKcbEEeqERKS3_ @ 1013
;	std::_Rb_tree_const_iterator<std::pair<char const, bool> >::operator!=(std::_Rb_tree_const_iterator<std::pair<char const, bool> > const&) const
	_ZNKSt23_Rb_tree_const_iteratorISt4pairIKcbEEneERKS3_ @ 1014
;	std::_Rb_tree_const_iterator<std::pair<wchar_t const, bool> >::operator==(std::_Rb_tree_const_iterator<std::pair<wchar_t const, bool> > const&) const
	_ZNKSt23_Rb_tree_const_iteratorISt4pairIKwbEEeqERKS3_ @ 1015
;	std::_Rb_tree_const_iterator<std::pair<wchar_t const, bool> >::operator!=(std::_Rb_tree_const_iterator<std::pair<wchar_t const, bool> > const&) const
	_ZNKSt23_Rb_tree_const_iteratorISt4pairIKwbEEneERKS3_ @ 1016
;	std::map<NFANode*, bool, std::less<NFANode*>, std::allocator<std::pair<NFANode* const, bool> > >::key_comp() const
	_ZNKSt3mapIP7NFANodebSt4lessIS1_ESaISt4pairIKS1_bEEE8key_compEv @ 1017
;	std::map<NFAUNode*, bool, std::less<NFAUNode*>, std::allocator<std::pair<NFAUNode* const, bool> > >::key_comp() const
	_ZNKSt3mapIP8NFAUNodebSt4lessIS1_ESaISt4pairIKS1_bEEE8key_compEv @ 1018
;	std::map<std::basic_string<wchar_t, std::char_traits<wchar_t>, std::allocator<wchar_t> >, WCPattern*, std::less<std::basic_string<wchar_t, std::char_traits<wchar_t>, std::allocator<wchar_t> > >, std::allocator<std::pair<std::basic_string<wchar_t, std::char_traits<wchar_t>, std::allocator<wchar_t> > const, WCPattern*> > >::key_comp() const
	_ZNKSt3mapISbIwSt11char_traitsIwESaIwEEP9WCPatternSt4lessIS3_ESaISt4pairIKS3_S5_EEE8key_compEv @ 1019
;	std::map<std::basic_string<wchar_t, std::char_traits<wchar_t>, std::allocator<wchar_t> >, std::pair<std::basic_string<wchar_t, std::char_traits<wchar_t>, std::allocator<wchar_t> >, unsigned long>, std::less<std::basic_string<wchar_t, std::char_traits<wchar_t>, std::allocator<wchar_t> > >, std::allocator<std::pair<std::basic_string<wchar_t, std::char_traits<wchar_t>, std::allocator<wchar_t> > const, std::pair<std::basic_string<wchar_t, std::char_traits<wchar_t>, std::allocator<wchar_t> >, unsigned long> > > >::key_comp() const
	_ZNKSt3mapISbIwSt11char_traitsIwESaIwEESt4pairIS3_mESt4lessIS3_ESaIS4_IKS3_S5_EEE8key_compEv @ 1020
;	std::map<std::string, Pattern*, std::less<std::string>, std::allocator<std::pair<std::string const, Pattern*> > >::key_comp() const
	_ZNKSt3mapISsP7PatternSt4lessISsESaISt4pairIKSsS1_EEE8key_compEv @ 1021
;	std::map<std::string, std::pair<std::string, unsigned long>, std::less<std::string>, std::allocator<std::pair<std::string const, std::pair<std::string, unsigned long> > > >::key_comp() const
	_ZNKSt3mapISsSt4pairISsmESt4lessISsESaIS0_IKSsS1_EEE8key_compEv @ 1022
;	std::map<char, bool, std::less<char>, std::allocator<std::pair<char const, bool> > >::end() const
	_ZNKSt3mapIcbSt4lessIcESaISt4pairIKcbEEE3endEv @ 1023
;	std::map<char, bool, std::less<char>, std::allocator<std::pair<char const, bool> > >::find(char const&) const
	_ZNKSt3mapIcbSt4lessIcESaISt4pairIKcbEEE4findERS3_ @ 1024
;	std::map<char, bool, std::less<char>, std::allocator<std::pair<char const, bool> > >::size() const
	_ZNKSt3mapIcbSt4lessIcESaISt4pairIKcbEEE4sizeEv @ 1025
;	std::map<char, bool, std::less<char>, std::allocator<std::pair<char const, bool> > >::key_comp() const
	_ZNKSt3mapIcbSt4lessIcESaISt4pairIKcbEEE8key_compEv @ 1026
;	std::map<wchar_t, bool, std::less<wchar_t>, std::allocator<std::pair<wchar_t const, bool> > >::end() const
	_ZNKSt3mapIwbSt4lessIwESaISt4pairIKwbEEE3endEv @ 1027
;	std::map<wchar_t, bool, std::less<wchar_t>, std::allocator<std::pair<wchar_t const, bool> > >::find(wchar_t const&) const
	_ZNKSt3mapIwbSt4lessIwESaISt4pairIKwbEEE4findERS3_ @ 1028
;	std::map<wchar_t, bool, std::less<wchar_t>, std::allocator<std::pair<wchar_t const, bool> > >::key_comp() const
	_ZNKSt3mapIwbSt4lessIwESaISt4pairIKwbEEE8key_compEv @ 1029
;	std::less<NFANode*>::operator()(NFANode* const&, NFANode* const&) const
	_ZNKSt4lessIP7NFANodeEclERKS1_S4_ @ 1030
;	std::less<NFAUNode*>::operator()(NFAUNode* const&, NFAUNode* const&) const
	_ZNKSt4lessIP8NFAUNodeEclERKS1_S4_ @ 1031
;	std::less<wchar_t const*>::operator()(wchar_t const* const&, wchar_t const* const&) const
	_ZNKSt4lessIPKwEclERKS1_S4_ @ 1032
;	std::less<std::basic_string<wchar_t, std::char_traits<wchar_t>, std::allocator<wchar_t> > >::operator()(std::basic_string<wchar_t, std::char_traits<wchar_t>, std::allocator<wchar_t> > const&, std::basic_string<wchar_t, std::char_traits<wchar_t>, std::allocator<wchar_t> > const&) const
	_ZNKSt4lessISbIwSt11char_traitsIwESaIwEEEclERKS3_S6_ @ 1033
;	std::less<std::string>::operator()(std::string const&, std::string const&) const
	_ZNKSt4lessISsEclERKSsS2_ @ 1034
;	std::less<char>::operator()(char const&, char const&) const
	_ZNKSt4lessIcEclERKcS2_ @ 1035
;	std::less<wchar_t>::operator()(wchar_t const&, wchar_t const&) const
	_ZNKSt4lessIwEclERKwS2_ @ 1036
;	std::vector<std::basic_string<wchar_t, std::char_traits<wchar_t>, std::allocator<wchar_t> >, std::allocator<std::basic_string<wchar_t, std::char_traits<wchar_t>, std::allocator<wchar_t> > > >::end() const
	_ZNKSt6vectorISbIwSt11char_traitsIwESaIwEESaIS3_EE3endEv @ 1037
;	std::vector<std::basic_string<wchar_t, std::char_traits<wchar_t>, std::allocator<wchar_t> >, std::allocator<std::basic_string<wchar_t, std::char_traits<wchar_t>, std::allocator<wchar_t> > > >::size() const
	_ZNKSt6vectorISbIwSt11char_traitsIwESaIwEESaIS3_EE4sizeEv @ 1038
;	std::vector<std::basic_string<wchar_t, std::char_traits<wchar_t>, std::allocator<wchar_t> >, std::allocator<std::basic_string<wchar_t, std::char_traits<wchar_t>, std::allocator<wchar_t> > > >::begin() const
	_ZNKSt6vectorISbIwSt11char_traitsIwESaIwEESaIS3_EE5beginEv @ 1039
;	std::vector<std::basic_string<wchar_t, std::char_traits<wchar_t>, std::allocator<wchar_t> >, std::allocator<std::basic_string<wchar_t, std::char_traits<wchar_t>, std::allocator<wchar_t> > > >::capacity() const
	_ZNKSt6vectorISbIwSt11char_traitsIwESaIwEESaIS3_EE8capacityEv @ 1040
;	std::vector<std::string, std::allocator<std::string> >::end() const
	_ZNKSt6vectorISsSaISsEE3endEv @ 1041
;	std::vector<std::string, std::allocator<std::string> >::size() const
	_ZNKSt6vectorISsSaISsEE4sizeEv @ 1042
;	std::vector<std::string, std::allocator<std::string> >::begin() const
	_ZNKSt6vectorISsSaISsEE5beginEv @ 1043
;	std::vector<std::string, std::allocator<std::string> >::capacity() const
	_ZNKSt6vectorISsSaISsEE8capacityEv @ 1044
;	std::_Rb_tree<NFANode*, std::pair<NFANode* const, bool>, std::_Select1st<std::pair<NFANode* const, bool> >, std::less<NFANode*>, std::allocator<std::pair<NFANode* const, bool> > >::size() const
	_ZNKSt8_Rb_treeIP7NFANodeSt4pairIKS1_bESt10_Select1stIS4_ESt4lessIS1_ESaIS4_EE4sizeEv @ 1045
;	std::_Rb_tree<NFANode*, std::pair<NFANode* const, bool>, std::_Select1st<std::pair<NFANode* const, bool> >, std::less<NFANode*>, std::allocator<std::pair<NFANode* const, bool> > >::key_comp() const
	_ZNKSt8_Rb_treeIP7NFANodeSt4pairIKS1_bESt10_Select1stIS4_ESt4lessIS1_ESaIS4_EE8key_compEv @ 1046
;	std::_Rb_tree<NFAUNode*, std::pair<NFAUNode* const, bool>, std::_Select1st<std::pair<NFAUNode* const, bool> >, std::less<NFAUNode*>, std::allocator<std::pair<NFAUNode* const, bool> > >::size() const
	_ZNKSt8_Rb_treeIP8NFAUNodeSt4pairIKS1_bESt10_Select1stIS4_ESt4lessIS1_ESaIS4_EE4sizeEv @ 1047
;	std::_Rb_tree<NFAUNode*, std::pair<NFAUNode* const, bool>, std::_Select1st<std::pair<NFAUNode* const, bool> >, std::less<NFAUNode*>, std::allocator<std::pair<NFAUNode* const, bool> > >::key_comp() const
	_ZNKSt8_Rb_treeIP8NFAUNodeSt4pairIKS1_bESt10_Select1stIS4_ESt4lessIS1_ESaIS4_EE8key_compEv @ 1048
;	std::_Rb_tree<std::basic_string<wchar_t, std::char_traits<wchar_t>, std::allocator<wchar_t> >, std::pair<std::basic_string<wchar_t, std::char_traits<wchar_t>, std::allocator<wchar_t> > const, WCPattern*>, std::_Select1st<std::pair<std::basic_string<wchar_t, std::char_traits<wchar_t>, std::allocator<wchar_t> > const, WCPattern*> >, std::less<std::basic_string<wchar_t, std::char_traits<wchar_t>, std::allocator<wchar_t> > >, std::allocator<std::pair<std::basic_string<wchar_t, std::char_traits<wchar_t>, std::allocator<wchar_t> > const, WCPattern*> > >::size() const
	_ZNKSt8_Rb_treeISbIwSt11char_traitsIwESaIwEESt4pairIKS3_P9WCPatternESt10_Select1stIS8_ESt4lessIS3_ESaIS8_EE4sizeEv @ 1049
;	std::_Rb_tree<std::basic_string<wchar_t, std::char_traits<wchar_t>, std::allocator<wchar_t> >, std::pair<std::basic_string<wchar_t, std::char_traits<wchar_t>, std::allocator<wchar_t> > const, WCPattern*>, std::_Select1st<std::pair<std::basic_string<wchar_t, std::char_traits<wchar_t>, std::allocator<wchar_t> > const, WCPattern*> >, std::less<std::basic_string<wchar_t, std::char_traits<wchar_t>, std::allocator<wchar_t> > >, std::allocator<std::pair<std::basic_string<wchar_t, std::char_traits<wchar_t>, std::allocator<wchar_t> > const, WCPattern*> > >::key_comp() const
	_ZNKSt8_Rb_treeISbIwSt11char_traitsIwESaIwEESt4pairIKS3_P9WCPatternESt10_Select1stIS8_ESt4lessIS3_ESaIS8_EE8key_compEv @ 1050
;	std::_Rb_tree<std::basic_string<wchar_t, std::char_traits<wchar_t>, std::allocator<wchar_t> >, std::pair<std::basic_string<wchar_t, std::char_traits<wchar_t>, std::allocator<wchar_t> > const, std::pair<std::basic_string<wchar_t, std::char_traits<wchar_t>, std::allocator<wchar_t> >, unsigned long> >, std::_Select1st<std::pair<std::basic_string<wchar_t, std::char_traits<wchar_t>, std::allocator<wchar_t> > const, std::pair<std::basic_string<wchar_t, std::char_traits<wchar_t>, std::allocator<wchar_t> >, unsigned long> > >, std::less<std::basic_string<wchar_t, std::char_traits<wchar_t>, std::allocator<wchar_t> > >, std::allocator<std::pair<std::basic_string<wchar_t, std::char_traits<wchar_t>, std::allocator<wchar_t> > const, std::pair<std::basic_string<wchar_t, std::char_traits<wchar_t>, std::allocator<wchar_t> >, unsigned long> > > >::size() const
	_ZNKSt8_Rb_treeISbIwSt11char_traitsIwESaIwEESt4pairIKS3_S4_IS3_mEESt10_Select1stIS7_ESt4lessIS3_ESaIS7_EE4sizeEv @ 1051
;	std::_Rb_tree<std::basic_string<wchar_t, std::char_traits<wchar_t>, std::allocator<wchar_t> >, std::pair<std::basic_string<wchar_t, std::char_traits<wchar_t>, std::allocator<wchar_t> > const, std::pair<std::basic_string<wchar_t, std::char_traits<wchar_t>, std::allocator<wchar_t> >, unsigned long> >, std::_Select1st<std::pair<std::basic_string<wchar_t, std::char_traits<wchar_t>, std::allocator<wchar_t> > const, std::pair<std::basic_string<wchar_t, std::char_traits<wchar_t>, std::allocator<wchar_t> >, unsigned long> > >, std::less<std::basic_string<wchar_t, std::char_traits<wchar_t>, std::allocator<wchar_t> > >, std::allocator<std::pair<std::basic_string<wchar_t, std::char_traits<wchar_t>, std::allocator<wchar_t> > const, std::pair<std::basic_string<wchar_t, std::char_traits<wchar_t>, std::allocator<wchar_t> >, unsigned long> > > >::key_comp() const
	_ZNKSt8_Rb_treeISbIwSt11char_traitsIwESaIwEESt4pairIKS3_S4_IS3_mEESt10_Select1stIS7_ESt4lessIS3_ESaIS7_EE8key_compEv @ 1052
;	std::_Rb_tree<std::string, std::pair<std::string const, Pattern*>, std::_Select1st<std::pair<std::string const, Pattern*> >, std::less<std::string>, std::allocator<std::pair<std::string const, Pattern*> > >::size() const
	_ZNKSt8_Rb_treeISsSt4pairIKSsP7PatternESt10_Select1stIS4_ESt4lessISsESaIS4_EE4sizeEv @ 1053
;	std::_Rb_tree<std::string, std::pair<std::string const, Pattern*>, std::_Select1st<std::pair<std::string const, Pattern*> >, std::less<std::string>, std::allocator<std::pair<std::string const, Pattern*> > >::key_comp() const
	_ZNKSt8_Rb_treeISsSt4pairIKSsP7PatternESt10_Select1stIS4_ESt4lessISsESaIS4_EE8key_compEv @ 1054
;	std::_Rb_tree<std::string, std::pair<std::string const, std::pair<std::string, unsigned long> >, std::_Select1st<std::pair<std::string const, std::pair<std::string, unsigned long> > >, std::less<std::string>, std::allocator<std::pair<std::string const, std::pair<std::string, unsigned long> > > >::size() const
	_ZNKSt8_Rb_treeISsSt4pairIKSsS0_ISsmEESt10_Select1stIS3_ESt4lessISsESaIS3_EE4sizeEv @ 1055
;	std::_Rb_tree<std::string, std::pair<std::string const, std::pair<std::string, unsigned long> >, std::_Select1st<std::pair<std::string const, std::pair<std::string, unsigned long> > >, std::less<std::string>, std::allocator<std::pair<std::string const, std::pair<std::string, unsigned long> > > >::key_comp() const
	_ZNKSt8_Rb_treeISsSt4pairIKSsS0_ISsmEESt10_Select1stIS3_ESt4lessISsESaIS3_EE8key_compEv @ 1056
;	std::_Rb_tree<char, std::pair<char const, bool>, std::_Select1st<std::pair<char const, bool> >, std::less<char>, std::allocator<std::pair<char const, bool> > >::end() const
	_ZNKSt8_Rb_treeIcSt4pairIKcbESt10_Select1stIS2_ESt4lessIcESaIS2_EE3endEv @ 1057
;	std::_Rb_tree<char, std::pair<char const, bool>, std::_Select1st<std::pair<char const, bool> >, std::less<char>, std::allocator<std::pair<char const, bool> > >::find(char const&) const
	_ZNKSt8_Rb_treeIcSt4pairIKcbESt10_Select1stIS2_ESt4lessIcESaIS2_EE4findERS1_ @ 1058
;	std::_Rb_tree<char, std::pair<char const, bool>, std::_Select1st<std::pair<char const, bool> >, std::less<char>, std::allocator<std::pair<char const, bool> > >::size() const
	_ZNKSt8_Rb_treeIcSt4pairIKcbESt10_Select1stIS2_ESt4lessIcESaIS2_EE4sizeEv @ 1059
;	std::_Rb_tree<char, std::pair<char const, bool>, std::_Select1st<std::pair<char const, bool> >, std::less<char>, std::allocator<std::pair<char const, bool> > >::_M_end() const
	_ZNKSt8_Rb_treeIcSt4pairIKcbESt10_Select1stIS2_ESt4lessIcESaIS2_EE6_M_endEv @ 1060
;	std::_Rb_tree<char, std::pair<char const, bool>, std::_Select1st<std::pair<char const, bool> >, std::less<char>, std::allocator<std::pair<char const, bool> > >::_M_begin() const
	_ZNKSt8_Rb_treeIcSt4pairIKcbESt10_Select1stIS2_ESt4lessIcESaIS2_EE8_M_beginEv @ 1061
;	std::_Rb_tree<char, std::pair<char const, bool>, std::_Select1st<std::pair<char const, bool> >, std::less<char>, std::allocator<std::pair<char const, bool> > >::key_comp() const
	_ZNKSt8_Rb_treeIcSt4pairIKcbESt10_Select1stIS2_ESt4lessIcESaIS2_EE8key_compEv @ 1062
;	std::_Rb_tree<wchar_t, std::pair<wchar_t const, bool>, std::_Select1st<std::pair<wchar_t const, bool> >, std::less<wchar_t>, std::allocator<std::pair<wchar_t const, bool> > >::end() const
	_ZNKSt8_Rb_treeIwSt4pairIKwbESt10_Select1stIS2_ESt4lessIwESaIS2_EE3endEv @ 1063
;	std::_Rb_tree<wchar_t, std::pair<wchar_t const, bool>, std::_Select1st<std::pair<wchar_t const, bool> >, std::less<wchar_t>, std::allocator<std::pair<wchar_t const, bool> > >::find(wchar_t const&) const
	_ZNKSt8_Rb_treeIwSt4pairIKwbESt10_Select1stIS2_ESt4lessIwESaIS2_EE4findERS1_ @ 1064
;	std::_Rb_tree<wchar_t, std::pair<wchar_t const, bool>, std::_Select1st<std::pair<wchar_t const, bool> >, std::less<wchar_t>, std::allocator<std::pair<wchar_t const, bool> > >::size() const
	_ZNKSt8_Rb_treeIwSt4pairIKwbESt10_Select1stIS2_ESt4lessIwESaIS2_EE4sizeEv @ 1065
;	std::_Rb_tree<wchar_t, std::pair<wchar_t const, bool>, std::_Select1st<std::pair<wchar_t const, bool> >, std::less<wchar_t>, std::allocator<std::pair<wchar_t const, bool> > >::_M_end() const
	_ZNKSt8_Rb_treeIwSt4pairIKwbESt10_Select1stIS2_ESt4lessIwESaIS2_EE6_M_endEv @ 1066
;	std::_Rb_tree<wchar_t, std::pair<wchar_t const, bool>, std::_Select1st<std::pair<wchar_t const, bool> >, std::less<wchar_t>, std::allocator<std::pair<wchar_t const, bool> > >::_M_begin() const
	_ZNKSt8_Rb_treeIwSt4pairIKwbESt10_Select1stIS2_ESt4lessIwESaIS2_EE8_M_beginEv @ 1067
;	std::_Rb_tree<wchar_t, std::pair<wchar_t const, bool>, std::_Select1st<std::pair<wchar_t const, bool> >, std::less<wchar_t>, std::allocator<std::pair<wchar_t const, bool> > >::key_comp() const
	_ZNKSt8_Rb_treeIwSt4pairIKwbESt10_Select1stIS2_ESt4lessIwESaIS2_EE8key_compEv @ 1068
;	std::type_info::name() const
	_ZNKSt9type_info4nameEv @ 1069
;	std::allocator<std::basic_string<wchar_t, std::char_traits<wchar_t>, std::allocator<wchar_t> > >::allocator()
	_ZNSaISbIwSt11char_traitsIwESaIwEEEC1Ev @ 1070
;	std::allocator<std::basic_string<wchar_t, std::char_traits<wchar_t>, std::allocator<wchar_t> > >::allocator(std::allocator<std::basic_string<wchar_t, std::char_traits<wchar_t>, std::allocator<wchar_t> > > const&)
	_ZNSaISbIwSt11char_traitsIwESaIwEEEC2ERKS3_ @ 1071
;	std::allocator<std::basic_string<wchar_t, std::char_traits<wchar_t>, std::allocator<wchar_t> > >::~allocator()
	_ZNSaISbIwSt11char_traitsIwESaIwEEED1Ev @ 1072
;	std::allocator<std::basic_string<wchar_t, std::char_traits<wchar_t>, std::allocator<wchar_t> > >::~allocator()
	_ZNSaISbIwSt11char_traitsIwESaIwEEED2Ev @ 1073
;	std::allocator<std::string>::allocator()
	_ZNSaISsEC1Ev @ 1074
;	std::allocator<std::string>::allocator(std::allocator<std::string> const&)
	_ZNSaISsEC2ERKS_ @ 1075
;	std::allocator<std::string>::~allocator()
	_ZNSaISsED1Ev @ 1076
;	std::allocator<std::string>::~allocator()
	_ZNSaISsED2Ev @ 1077
;	std::allocator<std::_Rb_tree_node<std::pair<NFANode* const, bool> > >::allocator<std::pair<NFANode* const, bool> >(std::allocator<std::pair<NFANode* const, bool> > const&)
	_ZNSaISt13_Rb_tree_nodeISt4pairIKP7NFANodebEEEC1IS4_EERKSaIT_E @ 1078
;	std::allocator<std::_Rb_tree_node<std::pair<NFANode* const, bool> > >::allocator(std::allocator<std::_Rb_tree_node<std::pair<NFANode* const, bool> > > const&)
	_ZNSaISt13_Rb_tree_nodeISt4pairIKP7NFANodebEEEC2ERKS6_ @ 1079
;	std::allocator<std::_Rb_tree_node<std::pair<NFANode* const, bool> > >::~allocator()
	_ZNSaISt13_Rb_tree_nodeISt4pairIKP7NFANodebEEED1Ev @ 1080
;	std::allocator<std::_Rb_tree_node<std::pair<NFANode* const, bool> > >::~allocator()
	_ZNSaISt13_Rb_tree_nodeISt4pairIKP7NFANodebEEED2Ev @ 1081
;	std::allocator<std::_Rb_tree_node<std::pair<NFAUNode* const, bool> > >::allocator<std::pair<NFAUNode* const, bool> >(std::allocator<std::pair<NFAUNode* const, bool> > const&)
	_ZNSaISt13_Rb_tree_nodeISt4pairIKP8NFAUNodebEEEC1IS4_EERKSaIT_E @ 1082
;	std::allocator<std::_Rb_tree_node<std::pair<NFAUNode* const, bool> > >::allocator(std::allocator<std::_Rb_tree_node<std::pair<NFAUNode* const, bool> > > const&)
	_ZNSaISt13_Rb_tree_nodeISt4pairIKP8NFAUNodebEEEC2ERKS6_ @ 1083
;	std::allocator<std::_Rb_tree_node<std::pair<NFAUNode* const, bool> > >::~allocator()
	_ZNSaISt13_Rb_tree_nodeISt4pairIKP8NFAUNodebEEED1Ev @ 1084
;	std::allocator<std::_Rb_tree_node<std::pair<NFAUNode* const, bool> > >::~allocator()
	_ZNSaISt13_Rb_tree_nodeISt4pairIKP8NFAUNodebEEED2Ev @ 1085
;	std::allocator<std::_Rb_tree_node<std::pair<std::basic_string<wchar_t, std::char_traits<wchar_t>, std::allocator<wchar_t> > const, WCPattern*> > >::allocator<std::pair<std::basic_string<wchar_t, std::char_traits<wchar_t>, std::allocator<wchar_t> > const, WCPattern*> >(std::allocator<std::pair<std::basic_string<wchar_t, std::char_traits<wchar_t>, std::allocator<wchar_t> > const, WCPattern*> > const&)
	_ZNSaISt13_Rb_tree_nodeISt4pairIKSbIwSt11char_traitsIwESaIwEEP9WCPatternEEEC1IS8_EERKSaIT_E @ 1086
;	std::allocator<std::_Rb_tree_node<std::pair<std::basic_string<wchar_t, std::char_traits<wchar_t>, std::allocator<wchar_t> > const, WCPattern*> > >::allocator(std::allocator<std::_Rb_tree_node<std::pair<std::basic_string<wchar_t, std::char_traits<wchar_t>, std::allocator<wchar_t> > const, WCPattern*> > > const&)
	_ZNSaISt13_Rb_tree_nodeISt4pairIKSbIwSt11char_traitsIwESaIwEEP9WCPatternEEEC2ERKSA_ @ 1087
;	std::allocator<std::_Rb_tree_node<std::pair<std::basic_string<wchar_t, std::char_traits<wchar_t>, std::allocator<wchar_t> > const, WCPattern*> > >::~allocator()
	_ZNSaISt13_Rb_tree_nodeISt4pairIKSbIwSt11char_traitsIwESaIwEEP9WCPatternEEED1Ev @ 1088
;	std::allocator<std::_Rb_tree_node<std::pair<std::basic_string<wchar_t, std::char_traits<wchar_t>, std::allocator<wchar_t> > const, WCPattern*> > >::~allocator()
	_ZNSaISt13_Rb_tree_nodeISt4pairIKSbIwSt11char_traitsIwESaIwEEP9WCPatternEEED2Ev @ 1089
;	std::allocator<std::_Rb_tree_node<std::pair<std::basic_string<wchar_t, std::char_traits<wchar_t>, std::allocator<wchar_t> > const, std::pair<std::basic_string<wchar_t, std::char_traits<wchar_t>, std::allocator<wchar_t> >, unsigned long> > > >::allocator<std::pair<std::basic_string<wchar_t, std::char_traits<wchar_t>, std::allocator<wchar_t> > const, std::pair<std::basic_string<wchar_t, std::char_traits<wchar_t>, std::allocator<wchar_t> >, unsigned long> > >(std::allocator<std::pair<std::basic_string<wchar_t, std::char_traits<wchar_t>, std::allocator<wchar_t> > const, std::pair<std::basic_string<wchar_t, std::char_traits<wchar_t>, std::allocator<wchar_t> >, unsigned long> > > const&)
	_ZNSaISt13_Rb_tree_nodeISt4pairIKSbIwSt11char_traitsIwESaIwEES0_IS4_mEEEEC1IS7_EERKSaIT_E @ 1090
;	std::allocator<std::_Rb_tree_node<std::pair<std::basic_string<wchar_t, std::char_traits<wchar_t>, std::allocator<wchar_t> > const, std::pair<std::basic_string<wchar_t, std::char_traits<wchar_t>, std::allocator<wchar_t> >, unsigned long> > > >::allocator(std::allocator<std::_Rb_tree_node<std::pair<std::basic_string<wchar_t, std::char_traits<wchar_t>, std::allocator<wchar_t> > const, std::pair<std::basic_string<wchar_t, std::char_traits<wchar_t>, std::allocator<wchar_t> >, unsigned long> > > > const&)
	_ZNSaISt13_Rb_tree_nodeISt4pairIKSbIwSt11char_traitsIwESaIwEES0_IS4_mEEEEC2ERKS9_ @ 1091
;	std::allocator<std::_Rb_tree_node<std::pair<std::basic_string<wchar_t, std::char_traits<wchar_t>, std::allocator<wchar_t> > const, std::pair<std::basic_string<wchar_t, std::char_traits<wchar_t>, std::allocator<wchar_t> >, unsigned long> > > >::~allocator()
	_ZNSaISt13_Rb_tree_nodeISt4pairIKSbIwSt11char_traitsIwESaIwEES0_IS4_mEEEED1Ev @ 1092
;	std::allocator<std::_Rb_tree_node<std::pair<std::basic_string<wchar_t, std::char_traits<wchar_t>, std::allocator<wchar_t> > const, std::pair<std::basic_string<wchar_t, std::char_traits<wchar_t>, std::allocator<wchar_t> >, unsigned long> > > >::~allocator()
	_ZNSaISt13_Rb_tree_nodeISt4pairIKSbIwSt11char_traitsIwESaIwEES0_IS4_mEEEED2Ev @ 1093
;	std::allocator<std::_Rb_tree_node<std::pair<std::string const, Pattern*> > >::allocator<std::pair<std::string const, Pattern*> >(std::allocator<std::pair<std::string const, Pattern*> > const&)
	_ZNSaISt13_Rb_tree_nodeISt4pairIKSsP7PatternEEEC1IS4_EERKSaIT_E @ 1094
;	std::allocator<std::_Rb_tree_node<std::pair<std::string const, Pattern*> > >::allocator(std::allocator<std::_Rb_tree_node<std::pair<std::string const, Pattern*> > > const&)
	_ZNSaISt13_Rb_tree_nodeISt4pairIKSsP7PatternEEEC2ERKS6_ @ 1095
;	std::allocator<std::_Rb_tree_node<std::pair<std::string const, Pattern*> > >::~allocator()
	_ZNSaISt13_Rb_tree_nodeISt4pairIKSsP7PatternEEED1Ev @ 1096
;	std::allocator<std::_Rb_tree_node<std::pair<std::string const, Pattern*> > >::~allocator()
	_ZNSaISt13_Rb_tree_nodeISt4pairIKSsP7PatternEEED2Ev @ 1097
;	std::allocator<std::_Rb_tree_node<std::pair<std::string const, std::pair<std::string, unsigned long> > > >::allocator<std::pair<std::string const, std::pair<std::string, unsigned long> > >(std::allocator<std::pair<std::string const, std::pair<std::string, unsigned long> > > const&)
	_ZNSaISt13_Rb_tree_nodeISt4pairIKSsS0_ISsmEEEEC1IS3_EERKSaIT_E @ 1098
;	std::allocator<std::_Rb_tree_node<std::pair<std::string const, std::pair<std::string, unsigned long> > > >::allocator(std::allocator<std::_Rb_tree_node<std::pair<std::string const, std::pair<std::string, unsigned long> > > > const&)
	_ZNSaISt13_Rb_tree_nodeISt4pairIKSsS0_ISsmEEEEC2ERKS5_ @ 1099
;	std::allocator<std::_Rb_tree_node<std::pair<std::string const, std::pair<std::string, unsigned long> > > >::~allocator()
	_ZNSaISt13_Rb_tree_nodeISt4pairIKSsS0_ISsmEEEED1Ev @ 1100
;	std::allocator<std::_Rb_tree_node<std::pair<std::string const, std::pair<std::string, unsigned long> > > >::~allocator()
	_ZNSaISt13_Rb_tree_nodeISt4pairIKSsS0_ISsmEEEED2Ev @ 1101
;	std::allocator<std::_Rb_tree_node<std::pair<char const, bool> > >::allocator<std::pair<char const, bool> >(std::allocator<std::pair<char const, bool> > const&)
	_ZNSaISt13_Rb_tree_nodeISt4pairIKcbEEEC1IS2_EERKSaIT_E @ 1102
;	std::allocator<std::_Rb_tree_node<std::pair<char const, bool> > >::allocator(std::allocator<std::_Rb_tree_node<std::pair<char const, bool> > > const&)
	_ZNSaISt13_Rb_tree_nodeISt4pairIKcbEEEC2ERKS4_ @ 1103
;	std::allocator<std::_Rb_tree_node<std::pair<char const, bool> > >::~allocator()
	_ZNSaISt13_Rb_tree_nodeISt4pairIKcbEEED1Ev @ 1104
;	std::allocator<std::_Rb_tree_node<std::pair<char const, bool> > >::~allocator()
	_ZNSaISt13_Rb_tree_nodeISt4pairIKcbEEED2Ev @ 1105
;	std::allocator<std::_Rb_tree_node<std::pair<wchar_t const, bool> > >::allocator<std::pair<wchar_t const, bool> >(std::allocator<std::pair<wchar_t const, bool> > const&)
	_ZNSaISt13_Rb_tree_nodeISt4pairIKwbEEEC1IS2_EERKSaIT_E @ 1106
;	std::allocator<std::_Rb_tree_node<std::pair<wchar_t const, bool> > >::allocator(std::allocator<std::_Rb_tree_node<std::pair<wchar_t const, bool> > > const&)
	_ZNSaISt13_Rb_tree_nodeISt4pairIKwbEEEC2ERKS4_ @ 1107
;	std::allocator<std::_Rb_tree_node<std::pair<wchar_t const, bool> > >::~allocator()
	_ZNSaISt13_Rb_tree_nodeISt4pairIKwbEEED1Ev @ 1108
;	std::allocator<std::_Rb_tree_node<std::pair<wchar_t const, bool> > >::~allocator()
	_ZNSaISt13_Rb_tree_nodeISt4pairIKwbEEED2Ev @ 1109
;	std::allocator<std::pair<NFANode* const, bool> >::allocator()
	_ZNSaISt4pairIKP7NFANodebEEC1Ev @ 1110
;	std::allocator<std::pair<NFANode* const, bool> >::~allocator()
	_ZNSaISt4pairIKP7NFANodebEED1Ev @ 1111
;	std::allocator<std::pair<NFAUNode* const, bool> >::allocator()
	_ZNSaISt4pairIKP8NFAUNodebEEC1Ev @ 1112
;	std::allocator<std::pair<NFAUNode* const, bool> >::~allocator()
	_ZNSaISt4pairIKP8NFAUNodebEED1Ev @ 1113
;	std::allocator<std::pair<std::basic_string<wchar_t, std::char_traits<wchar_t>, std::allocator<wchar_t> > const, WCPattern*> >::allocator()
	_ZNSaISt4pairIKSbIwSt11char_traitsIwESaIwEEP9WCPatternEEC1Ev @ 1114
;	std::allocator<std::pair<std::basic_string<wchar_t, std::char_traits<wchar_t>, std::allocator<wchar_t> > const, WCPattern*> >::~allocator()
	_ZNSaISt4pairIKSbIwSt11char_traitsIwESaIwEEP9WCPatternEED1Ev @ 1115
;	std::allocator<std::pair<std::basic_string<wchar_t, std::char_traits<wchar_t>, std::allocator<wchar_t> > const, std::pair<std::basic_string<wchar_t, std::char_traits<wchar_t>, std::allocator<wchar_t> >, unsigned long> > >::allocator()
	_ZNSaISt4pairIKSbIwSt11char_traitsIwESaIwEES_IS3_mEEEC1Ev @ 1116
;	std::allocator<std::pair<std::basic_string<wchar_t, std::char_traits<wchar_t>, std::allocator<wchar_t> > const, std::pair<std::basic_string<wchar_t, std::char_traits<wchar_t>, std::allocator<wchar_t> >, unsigned long> > >::~allocator()
	_ZNSaISt4pairIKSbIwSt11char_traitsIwESaIwEES_IS3_mEEED1Ev @ 1117
;	std::allocator<std::pair<std::string const, Pattern*> >::allocator()
	_ZNSaISt4pairIKSsP7PatternEEC1Ev @ 1118
;	std::allocator<std::pair<std::string const, Pattern*> >::~allocator()
	_ZNSaISt4pairIKSsP7PatternEED1Ev @ 1119
;	std::allocator<std::pair<std::string const, std::pair<std::string, unsigned long> > >::allocator()
	_ZNSaISt4pairIKSsS_ISsmEEEC1Ev @ 1120
;	std::allocator<std::pair<std::string const, std::pair<std::string, unsigned long> > >::~allocator()
	_ZNSaISt4pairIKSsS_ISsmEEED1Ev @ 1121
;	std::allocator<std::pair<char const, bool> >::allocator()
	_ZNSaISt4pairIKcbEEC1Ev @ 1122
;	std::allocator<std::pair<char const, bool> >::~allocator()
	_ZNSaISt4pairIKcbEED1Ev @ 1123
;	std::allocator<std::pair<wchar_t const, bool> >::allocator()
	_ZNSaISt4pairIKwbEEC1Ev @ 1124
;	std::allocator<std::pair<wchar_t const, bool> >::~allocator()
	_ZNSaISt4pairIKwbEED1Ev @ 1125
;	std::allocator<char>::allocator<wchar_t>(std::allocator<wchar_t> const&)
	_ZNSaIcEC1IwEERKSaIT_E @ 1126
;	std::basic_string<wchar_t, std::char_traits<wchar_t>, std::allocator<wchar_t> >::_Alloc_hider::_Alloc_hider(wchar_t*, std::allocator<wchar_t> const&)
	_ZNSbIwSt11char_traitsIwESaIwEE12_Alloc_hiderC1EPwRKS1_ @ 1127
;	std::basic_string<wchar_t, std::char_traits<wchar_t>, std::allocator<wchar_t> >::_Alloc_hider::~_Alloc_hider()
	_ZNSbIwSt11char_traitsIwESaIwEE12_Alloc_hiderD1Ev @ 1128
;	std::basic_string<wchar_t, std::char_traits<wchar_t>, std::allocator<wchar_t> >::_M_leak_hard()
	_ZNSbIwSt11char_traitsIwESaIwEE12_M_leak_hardEv @ 1129
;	std::basic_string<wchar_t, std::char_traits<wchar_t>, std::allocator<wchar_t> >::_S_construct(unsigned int, wchar_t, std::allocator<wchar_t> const&)
	_ZNSbIwSt11char_traitsIwESaIwEE12_S_constructEjwRKS1_ @ 1130
;	wchar_t* std::basic_string<wchar_t, std::char_traits<wchar_t>, std::allocator<wchar_t> >::_S_construct<wchar_t const*>(wchar_t const*, wchar_t const*, std::allocator<wchar_t> const&)
	_ZNSbIwSt11char_traitsIwESaIwEE12_S_constructIPKwEEPwT_S7_RKS1_ @ 1131
;	wchar_t* std::basic_string<wchar_t, std::char_traits<wchar_t>, std::allocator<wchar_t> >::_S_construct<wchar_t const*>(wchar_t const*, wchar_t const*, std::allocator<wchar_t> const&, std::forward_iterator_tag)
	_ZNSbIwSt11char_traitsIwESaIwEE12_S_constructIPKwEEPwT_S7_RKS1_St20forward_iterator_tag @ 1132
;	wchar_t* std::basic_string<wchar_t, std::char_traits<wchar_t>, std::allocator<wchar_t> >::_S_construct<wchar_t*>(wchar_t*, wchar_t*, std::allocator<wchar_t> const&)
	_ZNSbIwSt11char_traitsIwESaIwEE12_S_constructIPwEES4_T_S5_RKS1_ @ 1133
;	wchar_t* std::basic_string<wchar_t, std::char_traits<wchar_t>, std::allocator<wchar_t> >::_S_construct<wchar_t*>(wchar_t*, wchar_t*, std::allocator<wchar_t> const&, std::forward_iterator_tag)
	_ZNSbIwSt11char_traitsIwESaIwEE12_S_constructIPwEES4_T_S5_RKS1_St20forward_iterator_tag @ 1134
;	std::basic_string<wchar_t, std::char_traits<wchar_t>, std::allocator<wchar_t> >::_S_empty_rep()
	_ZNSbIwSt11char_traitsIwESaIwEE12_S_empty_repEv @ 1135
;	std::basic_string<wchar_t, std::char_traits<wchar_t>, std::allocator<wchar_t> >::_S_copy_chars(wchar_t*, wchar_t const*, wchar_t const*)
	_ZNSbIwSt11char_traitsIwESaIwEE13_S_copy_charsEPwPKwS5_ @ 1136
;	std::basic_string<wchar_t, std::char_traits<wchar_t>, std::allocator<wchar_t> >::_S_copy_chars(wchar_t*, wchar_t*, wchar_t*)
	_ZNSbIwSt11char_traitsIwESaIwEE13_S_copy_charsEPwS3_S3_ @ 1137
;	std::basic_string<wchar_t, std::char_traits<wchar_t>, std::allocator<wchar_t> >::_M_replace_safe(unsigned int, unsigned int, wchar_t const*, unsigned int)
	_ZNSbIwSt11char_traitsIwESaIwEE15_M_replace_safeEjjPKwj @ 1138
;	wchar_t* std::basic_string<wchar_t, std::char_traits<wchar_t>, std::allocator<wchar_t> >::_S_construct_aux<wchar_t const*>(wchar_t const*, wchar_t const*, std::allocator<wchar_t> const&, __false_type)
	_ZNSbIwSt11char_traitsIwESaIwEE16_S_construct_auxIPKwEEPwT_S7_RKS1_12__false_type @ 1139
;	wchar_t* std::basic_string<wchar_t, std::char_traits<wchar_t>, std::allocator<wchar_t> >::_S_construct_aux<wchar_t*>(wchar_t*, wchar_t*, std::allocator<wchar_t> const&, __false_type)
	_ZNSbIwSt11char_traitsIwESaIwEE16_S_construct_auxIPwEES4_T_S5_RKS1_12__false_type @ 1140
;	std::basic_string<wchar_t, std::char_traits<wchar_t>, std::allocator<wchar_t> >::end()
	_ZNSbIwSt11char_traitsIwESaIwEE3endEv @ 1141
;	std::basic_string<wchar_t, std::char_traits<wchar_t>, std::allocator<wchar_t> >::_Rep::_M_destroy(std::allocator<wchar_t> const&)
	_ZNSbIwSt11char_traitsIwESaIwEE4_Rep10_M_destroyERKS1_ @ 1142
;	std::basic_string<wchar_t, std::char_traits<wchar_t>, std::allocator<wchar_t> >::_Rep::_M_dispose(std::allocator<wchar_t> const&)
	_ZNSbIwSt11char_traitsIwESaIwEE4_Rep10_M_disposeERKS1_ @ 1143
;	std::basic_string<wchar_t, std::char_traits<wchar_t>, std::allocator<wchar_t> >::_Rep::_M_refcopy()
	_ZNSbIwSt11char_traitsIwESaIwEE4_Rep10_M_refcopyEv @ 1144
;	std::basic_string<wchar_t, std::char_traits<wchar_t>, std::allocator<wchar_t> >::_Rep::_M_refdata()
	_ZNSbIwSt11char_traitsIwESaIwEE4_Rep10_M_refdataEv @ 1145
;	std::basic_string<wchar_t, std::char_traits<wchar_t>, std::allocator<wchar_t> >::_Rep::_S_empty_rep()
	_ZNSbIwSt11char_traitsIwESaIwEE4_Rep12_S_empty_repEv @ 1146
;	std::basic_string<wchar_t, std::char_traits<wchar_t>, std::allocator<wchar_t> >::_Rep::_M_set_leaked()
	_ZNSbIwSt11char_traitsIwESaIwEE4_Rep13_M_set_leakedEv @ 1147
;	std::basic_string<wchar_t, std::char_traits<wchar_t>, std::allocator<wchar_t> >::_Rep::_M_set_sharable()
	_ZNSbIwSt11char_traitsIwESaIwEE4_Rep15_M_set_sharableEv @ 1148
;	std::basic_string<wchar_t, std::char_traits<wchar_t>, std::allocator<wchar_t> >::_Rep::_S_empty_rep_storage
	_ZNSbIwSt11char_traitsIwESaIwEE4_Rep20_S_empty_rep_storageE @ 1149 DATA
;	std::basic_string<wchar_t, std::char_traits<wchar_t>, std::allocator<wchar_t> >::_Rep::_M_grab(std::allocator<wchar_t> const&, std::allocator<wchar_t> const&)
	_ZNSbIwSt11char_traitsIwESaIwEE4_Rep7_M_grabERKS1_S5_ @ 1150
;	std::basic_string<wchar_t, std::char_traits<wchar_t>, std::allocator<wchar_t> >::_Rep::_M_clone(std::allocator<wchar_t> const&, unsigned int)
	_ZNSbIwSt11char_traitsIwESaIwEE4_Rep8_M_cloneERKS1_j @ 1151
;	std::basic_string<wchar_t, std::char_traits<wchar_t>, std::allocator<wchar_t> >::_Rep::_S_create(unsigned int, unsigned int, std::allocator<wchar_t> const&)
	_ZNSbIwSt11char_traitsIwESaIwEE4_Rep9_S_createEjjRKS1_ @ 1152
;	std::basic_string<wchar_t, std::char_traits<wchar_t>, std::allocator<wchar_t> >::begin()
	_ZNSbIwSt11char_traitsIwESaIwEE5beginEv @ 1153
;	std::basic_string<wchar_t, std::char_traits<wchar_t>, std::allocator<wchar_t> >::append(wchar_t const*)
	_ZNSbIwSt11char_traitsIwESaIwEE6appendEPKw @ 1154
;	std::basic_string<wchar_t, std::char_traits<wchar_t>, std::allocator<wchar_t> >::append(wchar_t const*, unsigned int)
	_ZNSbIwSt11char_traitsIwESaIwEE6appendEPKwj @ 1155
;	std::basic_string<wchar_t, std::char_traits<wchar_t>, std::allocator<wchar_t> >::append(std::basic_string<wchar_t, std::char_traits<wchar_t>, std::allocator<wchar_t> > const&)
	_ZNSbIwSt11char_traitsIwESaIwEE6appendERKS2_ @ 1156
;	std::basic_string<wchar_t, std::char_traits<wchar_t>, std::allocator<wchar_t> >::assign(wchar_t const*)
	_ZNSbIwSt11char_traitsIwESaIwEE6assignEPKw @ 1157
;	std::basic_string<wchar_t, std::char_traits<wchar_t>, std::allocator<wchar_t> >::assign(wchar_t const*, unsigned int)
	_ZNSbIwSt11char_traitsIwESaIwEE6assignEPKwj @ 1158
;	std::basic_string<wchar_t, std::char_traits<wchar_t>, std::allocator<wchar_t> >::assign(std::basic_string<wchar_t, std::char_traits<wchar_t>, std::allocator<wchar_t> > const&)
	_ZNSbIwSt11char_traitsIwESaIwEE6assignERKS2_ @ 1159
;	std::basic_string<wchar_t, std::char_traits<wchar_t>, std::allocator<wchar_t> >::_M_data(wchar_t*)
	_ZNSbIwSt11char_traitsIwESaIwEE7_M_dataEPw @ 1160
;	std::basic_string<wchar_t, std::char_traits<wchar_t>, std::allocator<wchar_t> >::_M_leak()
	_ZNSbIwSt11char_traitsIwESaIwEE7_M_leakEv @ 1161
;	std::basic_string<wchar_t, std::char_traits<wchar_t>, std::allocator<wchar_t> >::reserve(unsigned int)
	_ZNSbIwSt11char_traitsIwESaIwEE7reserveEj @ 1162
;	std::basic_string<wchar_t, std::char_traits<wchar_t>, std::allocator<wchar_t> >::_M_mutate(unsigned int, unsigned int, unsigned int)
	_ZNSbIwSt11char_traitsIwESaIwEE9_M_mutateEjjj @ 1163
;	std::basic_string<wchar_t, std::char_traits<wchar_t>, std::allocator<wchar_t> >::basic_string(wchar_t const*, std::allocator<wchar_t> const&)
	_ZNSbIwSt11char_traitsIwESaIwEEC1EPKwRKS1_ @ 1164
;	std::basic_string<wchar_t, std::char_traits<wchar_t>, std::allocator<wchar_t> >::basic_string(wchar_t const*, unsigned int, std::allocator<wchar_t> const&)
	_ZNSbIwSt11char_traitsIwESaIwEEC1EPKwjRKS1_ @ 1165
;	std::basic_string<wchar_t, std::char_traits<wchar_t>, std::allocator<wchar_t> >::basic_string(std::basic_string<wchar_t, std::char_traits<wchar_t>, std::allocator<wchar_t> > const&)
	_ZNSbIwSt11char_traitsIwESaIwEEC1ERKS2_ @ 1166
;	std::basic_string<wchar_t, std::char_traits<wchar_t>, std::allocator<wchar_t> >::basic_string(std::basic_string<wchar_t, std::char_traits<wchar_t>, std::allocator<wchar_t> > const&, unsigned int, unsigned int)
	_ZNSbIwSt11char_traitsIwESaIwEEC1ERKS2_jj @ 1167
;	std::basic_string<wchar_t, std::char_traits<wchar_t>, std::allocator<wchar_t> >::basic_string(unsigned int, wchar_t, std::allocator<wchar_t> const&)
	_ZNSbIwSt11char_traitsIwESaIwEEC1EjwRKS1_ @ 1168
;	std::basic_string<wchar_t, std::char_traits<wchar_t>, std::allocator<wchar_t> >::basic_string()
	_ZNSbIwSt11char_traitsIwESaIwEEC1Ev @ 1169
;	std::basic_string<wchar_t, std::char_traits<wchar_t>, std::allocator<wchar_t> >::~basic_string()
	_ZNSbIwSt11char_traitsIwESaIwEED1Ev @ 1170
;	std::basic_string<wchar_t, std::char_traits<wchar_t>, std::allocator<wchar_t> >::operator=(wchar_t const*)
	_ZNSbIwSt11char_traitsIwESaIwEEaSEPKw @ 1171
;	std::basic_string<wchar_t, std::char_traits<wchar_t>, std::allocator<wchar_t> >::operator=(std::basic_string<wchar_t, std::char_traits<wchar_t>, std::allocator<wchar_t> > const&)
	_ZNSbIwSt11char_traitsIwESaIwEEaSERKS2_ @ 1172
;	std::basic_string<wchar_t, std::char_traits<wchar_t>, std::allocator<wchar_t> >::operator[](unsigned int)
	_ZNSbIwSt11char_traitsIwESaIwEEixEj @ 1173
;	std::basic_string<wchar_t, std::char_traits<wchar_t>, std::allocator<wchar_t> >::operator+=(wchar_t const*)
	_ZNSbIwSt11char_traitsIwESaIwEEpLEPKw @ 1174
;	std::basic_string<wchar_t, std::char_traits<wchar_t>, std::allocator<wchar_t> >::operator+=(std::basic_string<wchar_t, std::char_traits<wchar_t>, std::allocator<wchar_t> > const&)
	_ZNSbIwSt11char_traitsIwESaIwEEpLERKS2_ @ 1175
;	std::char_traits<wchar_t>::copy(wchar_t*, wchar_t const*, unsigned int)
	_ZNSt11char_traitsIwE4copyEPwPKwj @ 1176
;	std::char_traits<wchar_t>::move(wchar_t*, wchar_t const*, unsigned int)
	_ZNSt11char_traitsIwE4moveEPwPKwj @ 1177
;	std::char_traits<wchar_t>::assign(wchar_t*, unsigned int, wchar_t)
	_ZNSt11char_traitsIwE6assignEPwjw @ 1178
;	std::char_traits<wchar_t>::length(wchar_t const*)
	_ZNSt11char_traitsIwE6lengthEPKw @ 1179
;	std::char_traits<wchar_t>::compare(wchar_t const*, wchar_t const*, unsigned int)
	_ZNSt11char_traitsIwE7compareEPKwS2_j @ 1180
;	std::_Vector_base<std::basic_string<wchar_t, std::char_traits<wchar_t>, std::allocator<wchar_t> >, std::allocator<std::basic_string<wchar_t, std::char_traits<wchar_t>, std::allocator<wchar_t> > > >::_M_allocate(unsigned int)
	_ZNSt12_Vector_baseISbIwSt11char_traitsIwESaIwEESaIS3_EE11_M_allocateEj @ 1181
;	std::_Vector_base<std::basic_string<wchar_t, std::char_traits<wchar_t>, std::allocator<wchar_t> >, std::allocator<std::basic_string<wchar_t, std::char_traits<wchar_t>, std::allocator<wchar_t> > > >::_Vector_impl::_Vector_impl(std::allocator<std::basic_string<wchar_t, std::char_traits<wchar_t>, std::allocator<wchar_t> > > const&)
	_ZNSt12_Vector_baseISbIwSt11char_traitsIwESaIwEESaIS3_EE12_Vector_implC1ERKS4_ @ 1182
;	std::_Vector_base<std::basic_string<wchar_t, std::char_traits<wchar_t>, std::allocator<wchar_t> >, std::allocator<std::basic_string<wchar_t, std::char_traits<wchar_t>, std::allocator<wchar_t> > > >::_Vector_impl::~_Vector_impl()
	_ZNSt12_Vector_baseISbIwSt11char_traitsIwESaIwEESaIS3_EE12_Vector_implD1Ev @ 1183
;	std::_Vector_base<std::basic_string<wchar_t, std::char_traits<wchar_t>, std::allocator<wchar_t> >, std::allocator<std::basic_string<wchar_t, std::char_traits<wchar_t>, std::allocator<wchar_t> > > >::_M_deallocate(std::basic_string<wchar_t, std::char_traits<wchar_t>, std::allocator<wchar_t> >*, unsigned int)
	_ZNSt12_Vector_baseISbIwSt11char_traitsIwESaIwEESaIS3_EE13_M_deallocateEPS3_j @ 1184
;	std::_Vector_base<std::basic_string<wchar_t, std::char_traits<wchar_t>, std::allocator<wchar_t> >, std::allocator<std::basic_string<wchar_t, std::char_traits<wchar_t>, std::allocator<wchar_t> > > >::_Vector_base(std::allocator<std::basic_string<wchar_t, std::char_traits<wchar_t>, std::allocator<wchar_t> > > const&)
	_ZNSt12_Vector_baseISbIwSt11char_traitsIwESaIwEESaIS3_EEC2ERKS4_ @ 1185
;	std::_Vector_base<std::basic_string<wchar_t, std::char_traits<wchar_t>, std::allocator<wchar_t> >, std::allocator<std::basic_string<wchar_t, std::char_traits<wchar_t>, std::allocator<wchar_t> > > >::~_Vector_base()
	_ZNSt12_Vector_baseISbIwSt11char_traitsIwESaIwEESaIS3_EED2Ev @ 1186
;	std::_Vector_base<std::string, std::allocator<std::string> >::_M_allocate(unsigned int)
	_ZNSt12_Vector_baseISsSaISsEE11_M_allocateEj @ 1187
;	std::_Vector_base<std::string, std::allocator<std::string> >::_Vector_impl::_Vector_impl(std::allocator<std::string> const&)
	_ZNSt12_Vector_baseISsSaISsEE12_Vector_implC1ERKS0_ @ 1188
;	std::_Vector_base<std::string, std::allocator<std::string> >::_Vector_impl::~_Vector_impl()
	_ZNSt12_Vector_baseISsSaISsEE12_Vector_implD1Ev @ 1189
;	std::_Vector_base<std::string, std::allocator<std::string> >::_M_deallocate(std::string*, unsigned int)
	_ZNSt12_Vector_baseISsSaISsEE13_M_deallocateEPSsj @ 1190
;	std::_Vector_base<std::string, std::allocator<std::string> >::_Vector_base(std::allocator<std::string> const&)
	_ZNSt12_Vector_baseISsSaISsEEC2ERKS0_ @ 1191
;	std::_Vector_base<std::string, std::allocator<std::string> >::~_Vector_base()
	_ZNSt12_Vector_baseISsSaISsEED2Ev @ 1192
;	std::_Rb_tree_iterator<std::pair<NFANode* const, bool> >::_Rb_tree_iterator(std::_Rb_tree_node<std::pair<NFANode* const, bool> >*)
	_ZNSt17_Rb_tree_iteratorISt4pairIKP7NFANodebEEC1EPSt13_Rb_tree_nodeIS4_E @ 1193
;	std::_Rb_tree_iterator<std::pair<NFANode* const, bool> >::operator--()
	_ZNSt17_Rb_tree_iteratorISt4pairIKP7NFANodebEEmmEv @ 1194
;	std::_Rb_tree_iterator<std::pair<NFANode* const, bool> >::operator++()
	_ZNSt17_Rb_tree_iteratorISt4pairIKP7NFANodebEEppEv @ 1195
;	std::_Rb_tree_iterator<std::pair<NFAUNode* const, bool> >::_Rb_tree_iterator(std::_Rb_tree_node<std::pair<NFAUNode* const, bool> >*)
	_ZNSt17_Rb_tree_iteratorISt4pairIKP8NFAUNodebEEC1EPSt13_Rb_tree_nodeIS4_E @ 1196
;	std::_Rb_tree_iterator<std::pair<NFAUNode* const, bool> >::operator--()
	_ZNSt17_Rb_tree_iteratorISt4pairIKP8NFAUNodebEEmmEv @ 1197
;	std::_Rb_tree_iterator<std::pair<NFAUNode* const, bool> >::operator++()
	_ZNSt17_Rb_tree_iteratorISt4pairIKP8NFAUNodebEEppEv @ 1198
;	std::_Rb_tree_iterator<std::pair<std::basic_string<wchar_t, std::char_traits<wchar_t>, std::allocator<wchar_t> > const, WCPattern*> >::_Rb_tree_iterator(std::_Rb_tree_node<std::pair<std::basic_string<wchar_t, std::char_traits<wchar_t>, std::allocator<wchar_t> > const, WCPattern*> >*)
	_ZNSt17_Rb_tree_iteratorISt4pairIKSbIwSt11char_traitsIwESaIwEEP9WCPatternEEC1EPSt13_Rb_tree_nodeIS8_E @ 1199
;	std::_Rb_tree_iterator<std::pair<std::basic_string<wchar_t, std::char_traits<wchar_t>, std::allocator<wchar_t> > const, WCPattern*> >::_Rb_tree_iterator()
	_ZNSt17_Rb_tree_iteratorISt4pairIKSbIwSt11char_traitsIwESaIwEEP9WCPatternEEC1Ev @ 1200
;	std::_Rb_tree_iterator<std::pair<std::basic_string<wchar_t, std::char_traits<wchar_t>, std::allocator<wchar_t> > const, WCPattern*> >::operator--()
	_ZNSt17_Rb_tree_iteratorISt4pairIKSbIwSt11char_traitsIwESaIwEEP9WCPatternEEmmEv @ 1201
;	std::_Rb_tree_iterator<std::pair<std::basic_string<wchar_t, std::char_traits<wchar_t>, std::allocator<wchar_t> > const, WCPattern*> >::operator++()
	_ZNSt17_Rb_tree_iteratorISt4pairIKSbIwSt11char_traitsIwESaIwEEP9WCPatternEEppEv @ 1202
;	std::_Rb_tree_iterator<std::pair<std::basic_string<wchar_t, std::char_traits<wchar_t>, std::allocator<wchar_t> > const, std::pair<std::basic_string<wchar_t, std::char_traits<wchar_t>, std::allocator<wchar_t> >, unsigned long> > >::_Rb_tree_iterator(std::_Rb_tree_node<std::pair<std::basic_string<wchar_t, std::char_traits<wchar_t>, std::allocator<wchar_t> > const, std::pair<std::basic_string<wchar_t, std::char_traits<wchar_t>, std::allocator<wchar_t> >, unsigned long> > >*)
	_ZNSt17_Rb_tree_iteratorISt4pairIKSbIwSt11char_traitsIwESaIwEES0_IS4_mEEEC1EPSt13_Rb_tree_nodeIS7_E @ 1203
;	std::_Rb_tree_iterator<std::pair<std::basic_string<wchar_t, std::char_traits<wchar_t>, std::allocator<wchar_t> > const, std::pair<std::basic_string<wchar_t, std::char_traits<wchar_t>, std::allocator<wchar_t> >, unsigned long> > >::operator--()
	_ZNSt17_Rb_tree_iteratorISt4pairIKSbIwSt11char_traitsIwESaIwEES0_IS4_mEEEmmEv @ 1204
;	std::_Rb_tree_iterator<std::pair<std::string const, Pattern*> >::_Rb_tree_iterator(std::_Rb_tree_node<std::pair<std::string const, Pattern*> >*)
	_ZNSt17_Rb_tree_iteratorISt4pairIKSsP7PatternEEC1EPSt13_Rb_tree_nodeIS4_E @ 1205
;	std::_Rb_tree_iterator<std::pair<std::string const, Pattern*> >::_Rb_tree_iterator()
	_ZNSt17_Rb_tree_iteratorISt4pairIKSsP7PatternEEC1Ev @ 1206
;	std::_Rb_tree_iterator<std::pair<std::string const, Pattern*> >::operator--()
	_ZNSt17_Rb_tree_iteratorISt4pairIKSsP7PatternEEmmEv @ 1207
;	std::_Rb_tree_iterator<std::pair<std::string const, Pattern*> >::operator++()
	_ZNSt17_Rb_tree_iteratorISt4pairIKSsP7PatternEEppEv @ 1208
;	std::_Rb_tree_iterator<std::pair<std::string const, std::pair<std::string, unsigned long> > >::_Rb_tree_iterator(std::_Rb_tree_node<std::pair<std::string const, std::pair<std::string, unsigned long> > >*)
	_ZNSt17_Rb_tree_iteratorISt4pairIKSsS0_ISsmEEEC1EPSt13_Rb_tree_nodeIS3_E @ 1209
;	std::_Rb_tree_iterator<std::pair<std::string const, std::pair<std::string, unsigned long> > >::operator--()
	_ZNSt17_Rb_tree_iteratorISt4pairIKSsS0_ISsmEEEmmEv @ 1210
;	std::_Rb_tree_iterator<std::pair<char const, bool> >::_Rb_tree_iterator(std::_Rb_tree_node<std::pair<char const, bool> >*)
	_ZNSt17_Rb_tree_iteratorISt4pairIKcbEEC1EPSt13_Rb_tree_nodeIS2_E @ 1211
;	std::_Rb_tree_iterator<std::pair<char const, bool> >::operator--()
	_ZNSt17_Rb_tree_iteratorISt4pairIKcbEEmmEv @ 1212
;	std::_Rb_tree_iterator<std::pair<wchar_t const, bool> >::_Rb_tree_iterator(std::_Rb_tree_node<std::pair<wchar_t const, bool> >*)
	_ZNSt17_Rb_tree_iteratorISt4pairIKwbEEC1EPSt13_Rb_tree_nodeIS2_E @ 1213
;	std::_Rb_tree_iterator<std::pair<wchar_t const, bool> >::operator--()
	_ZNSt17_Rb_tree_iteratorISt4pairIKwbEEmmEv @ 1214
;	std::_Rb_tree_const_iterator<std::pair<char const, bool> >::_Rb_tree_const_iterator(std::_Rb_tree_node<std::pair<char const, bool> > const*)
	_ZNSt23_Rb_tree_const_iteratorISt4pairIKcbEEC1EPKSt13_Rb_tree_nodeIS2_E @ 1215
;	std::_Rb_tree_const_iterator<std::pair<wchar_t const, bool> >::_Rb_tree_const_iterator(std::_Rb_tree_node<std::pair<wchar_t const, bool> > const*)
	_ZNSt23_Rb_tree_const_iteratorISt4pairIKwbEEC1EPKSt13_Rb_tree_nodeIS2_E @ 1216
;	std::__copy_backward_dispatch<std::basic_string<wchar_t, std::char_traits<wchar_t>, std::allocator<wchar_t> >*, std::basic_string<wchar_t, std::char_traits<wchar_t>, std::allocator<wchar_t> >*, __false_type>::copy(std::basic_string<wchar_t, std::char_traits<wchar_t>, std::allocator<wchar_t> >*, std::basic_string<wchar_t, std::char_traits<wchar_t>, std::allocator<wchar_t> >*, std::basic_string<wchar_t, std::char_traits<wchar_t>, std::allocator<wchar_t> >*)
	_ZNSt24__copy_backward_dispatchIPSbIwSt11char_traitsIwESaIwEES4_12__false_typeE4copyES4_S4_S4_ @ 1217
;	std::__copy_backward_dispatch<std::string*, std::string*, __false_type>::copy(std::string*, std::string*, std::string*)
	_ZNSt24__copy_backward_dispatchIPSsS0_12__false_typeE4copyES0_S0_S0_ @ 1218
;	std::__copy_backward_dispatch<char*, char*, __true_type>::copy(char const*, char const*, char*)
	_ZNSt24__copy_backward_dispatchIPcS0_11__true_typeE4copyEPKcS4_S0_ @ 1219
;	std::__copy_backward_dispatch<wchar_t*, wchar_t*, __true_type>::copy(wchar_t const*, wchar_t const*, wchar_t*)
	_ZNSt24__copy_backward_dispatchIPwS0_11__true_typeE4copyEPKwS4_S0_ @ 1220
;	std::map<NFANode*, bool, std::less<NFANode*>, std::allocator<std::pair<NFANode* const, bool> > >::lower_bound(NFANode* const&)
	_ZNSt3mapIP7NFANodebSt4lessIS1_ESaISt4pairIKS1_bEEE11lower_boundERS5_ @ 1221
;	std::map<NFANode*, bool, std::less<NFANode*>, std::allocator<std::pair<NFANode* const, bool> > >::end()
	_ZNSt3mapIP7NFANodebSt4lessIS1_ESaISt4pairIKS1_bEEE3endEv @ 1222
;	std::map<NFANode*, bool, std::less<NFANode*>, std::allocator<std::pair<NFANode* const, bool> > >::find(NFANode* const&)
	_ZNSt3mapIP7NFANodebSt4lessIS1_ESaISt4pairIKS1_bEEE4findERS5_ @ 1223
;	std::map<NFANode*, bool, std::less<NFANode*>, std::allocator<std::pair<NFANode* const, bool> > >::begin()
	_ZNSt3mapIP7NFANodebSt4lessIS1_ESaISt4pairIKS1_bEEE5beginEv @ 1224
;	std::map<NFANode*, bool, std::less<NFANode*>, std::allocator<std::pair<NFANode* const, bool> > >::insert(std::_Rb_tree_iterator<std::pair<NFANode* const, bool> >, std::pair<NFANode* const, bool> const&)
	_ZNSt3mapIP7NFANodebSt4lessIS1_ESaISt4pairIKS1_bEEE6insertESt17_Rb_tree_iteratorIS6_ERKS6_ @ 1225
;	std::map<NFANode*, bool, std::less<NFANode*>, std::allocator<std::pair<NFANode* const, bool> > >::map()
	_ZNSt3mapIP7NFANodebSt4lessIS1_ESaISt4pairIKS1_bEEEC1Ev @ 1226
;	std::map<NFANode*, bool, std::less<NFANode*>, std::allocator<std::pair<NFANode* const, bool> > >::~map()
	_ZNSt3mapIP7NFANodebSt4lessIS1_ESaISt4pairIKS1_bEEED1Ev @ 1227
;	std::map<NFANode*, bool, std::less<NFANode*>, std::allocator<std::pair<NFANode* const, bool> > >::operator[](NFANode* const&)
	_ZNSt3mapIP7NFANodebSt4lessIS1_ESaISt4pairIKS1_bEEEixERS5_ @ 1228
;	std::map<NFAUNode*, bool, std::less<NFAUNode*>, std::allocator<std::pair<NFAUNode* const, bool> > >::lower_bound(NFAUNode* const&)
	_ZNSt3mapIP8NFAUNodebSt4lessIS1_ESaISt4pairIKS1_bEEE11lower_boundERS5_ @ 1229
;	std::map<NFAUNode*, bool, std::less<NFAUNode*>, std::allocator<std::pair<NFAUNode* const, bool> > >::end()
	_ZNSt3mapIP8NFAUNodebSt4lessIS1_ESaISt4pairIKS1_bEEE3endEv @ 1230
;	std::map<NFAUNode*, bool, std::less<NFAUNode*>, std::allocator<std::pair<NFAUNode* const, bool> > >::find(NFAUNode* const&)
	_ZNSt3mapIP8NFAUNodebSt4lessIS1_ESaISt4pairIKS1_bEEE4findERS5_ @ 1231
;	std::map<NFAUNode*, bool, std::less<NFAUNode*>, std::allocator<std::pair<NFAUNode* const, bool> > >::begin()
	_ZNSt3mapIP8NFAUNodebSt4lessIS1_ESaISt4pairIKS1_bEEE5beginEv @ 1232
;	std::map<NFAUNode*, bool, std::less<NFAUNode*>, std::allocator<std::pair<NFAUNode* const, bool> > >::insert(std::_Rb_tree_iterator<std::pair<NFAUNode* const, bool> >, std::pair<NFAUNode* const, bool> const&)
	_ZNSt3mapIP8NFAUNodebSt4lessIS1_ESaISt4pairIKS1_bEEE6insertESt17_Rb_tree_iteratorIS6_ERKS6_ @ 1233
;	std::map<NFAUNode*, bool, std::less<NFAUNode*>, std::allocator<std::pair<NFAUNode* const, bool> > >::map()
	_ZNSt3mapIP8NFAUNodebSt4lessIS1_ESaISt4pairIKS1_bEEEC1Ev @ 1234
;	std::map<NFAUNode*, bool, std::less<NFAUNode*>, std::allocator<std::pair<NFAUNode* const, bool> > >::~map()
	_ZNSt3mapIP8NFAUNodebSt4lessIS1_ESaISt4pairIKS1_bEEED1Ev @ 1235
;	std::map<NFAUNode*, bool, std::less<NFAUNode*>, std::allocator<std::pair<NFAUNode* const, bool> > >::operator[](NFAUNode* const&)
	_ZNSt3mapIP8NFAUNodebSt4lessIS1_ESaISt4pairIKS1_bEEEixERS5_ @ 1236
;	std::map<std::basic_string<wchar_t, std::char_traits<wchar_t>, std::allocator<wchar_t> >, WCPattern*, std::less<std::basic_string<wchar_t, std::char_traits<wchar_t>, std::allocator<wchar_t> > >, std::allocator<std::pair<std::basic_string<wchar_t, std::char_traits<wchar_t>, std::allocator<wchar_t> > const, WCPattern*> > >::lower_bound(std::basic_string<wchar_t, std::char_traits<wchar_t>, std::allocator<wchar_t> > const&)
	_ZNSt3mapISbIwSt11char_traitsIwESaIwEEP9WCPatternSt4lessIS3_ESaISt4pairIKS3_S5_EEE11lower_boundERS9_ @ 1237
;	std::map<std::basic_string<wchar_t, std::char_traits<wchar_t>, std::allocator<wchar_t> >, WCPattern*, std::less<std::basic_string<wchar_t, std::char_traits<wchar_t>, std::allocator<wchar_t> > >, std::allocator<std::pair<std::basic_string<wchar_t, std::char_traits<wchar_t>, std::allocator<wchar_t> > const, WCPattern*> > >::end()
	_ZNSt3mapISbIwSt11char_traitsIwESaIwEEP9WCPatternSt4lessIS3_ESaISt4pairIKS3_S5_EEE3endEv @ 1238
;	std::map<std::basic_string<wchar_t, std::char_traits<wchar_t>, std::allocator<wchar_t> >, WCPattern*, std::less<std::basic_string<wchar_t, std::char_traits<wchar_t>, std::allocator<wchar_t> > >, std::allocator<std::pair<std::basic_string<wchar_t, std::char_traits<wchar_t>, std::allocator<wchar_t> > const, WCPattern*> > >::find(std::basic_string<wchar_t, std::char_traits<wchar_t>, std::allocator<wchar_t> > const&)
	_ZNSt3mapISbIwSt11char_traitsIwESaIwEEP9WCPatternSt4lessIS3_ESaISt4pairIKS3_S5_EEE4findERS9_ @ 1239
;	std::map<std::basic_string<wchar_t, std::char_traits<wchar_t>, std::allocator<wchar_t> >, WCPattern*, std::less<std::basic_string<wchar_t, std::char_traits<wchar_t>, std::allocator<wchar_t> > >, std::allocator<std::pair<std::basic_string<wchar_t, std::char_traits<wchar_t>, std::allocator<wchar_t> > const, WCPattern*> > >::begin()
	_ZNSt3mapISbIwSt11char_traitsIwESaIwEEP9WCPatternSt4lessIS3_ESaISt4pairIKS3_S5_EEE5beginEv @ 1240
;	std::map<std::basic_string<wchar_t, std::char_traits<wchar_t>, std::allocator<wchar_t> >, WCPattern*, std::less<std::basic_string<wchar_t, std::char_traits<wchar_t>, std::allocator<wchar_t> > >, std::allocator<std::pair<std::basic_string<wchar_t, std::char_traits<wchar_t>, std::allocator<wchar_t> > const, WCPattern*> > >::clear()
	_ZNSt3mapISbIwSt11char_traitsIwESaIwEEP9WCPatternSt4lessIS3_ESaISt4pairIKS3_S5_EEE5clearEv @ 1241
;	std::map<std::basic_string<wchar_t, std::char_traits<wchar_t>, std::allocator<wchar_t> >, WCPattern*, std::less<std::basic_string<wchar_t, std::char_traits<wchar_t>, std::allocator<wchar_t> > >, std::allocator<std::pair<std::basic_string<wchar_t, std::char_traits<wchar_t>, std::allocator<wchar_t> > const, WCPattern*> > >::insert(std::_Rb_tree_iterator<std::pair<std::basic_string<wchar_t, std::char_traits<wchar_t>, std::allocator<wchar_t> > const, WCPattern*> >, std::pair<std::basic_string<wchar_t, std::char_traits<wchar_t>, std::allocator<wchar_t> > const, WCPattern*> const&)
	_ZNSt3mapISbIwSt11char_traitsIwESaIwEEP9WCPatternSt4lessIS3_ESaISt4pairIKS3_S5_EEE6insertESt17_Rb_tree_iteratorISA_ERKSA_ @ 1242
;	std::map<std::basic_string<wchar_t, std::char_traits<wchar_t>, std::allocator<wchar_t> >, WCPattern*, std::less<std::basic_string<wchar_t, std::char_traits<wchar_t>, std::allocator<wchar_t> > >, std::allocator<std::pair<std::basic_string<wchar_t, std::char_traits<wchar_t>, std::allocator<wchar_t> > const, WCPattern*> > >::map()
	_ZNSt3mapISbIwSt11char_traitsIwESaIwEEP9WCPatternSt4lessIS3_ESaISt4pairIKS3_S5_EEEC1Ev @ 1243
;	std::map<std::basic_string<wchar_t, std::char_traits<wchar_t>, std::allocator<wchar_t> >, WCPattern*, std::less<std::basic_string<wchar_t, std::char_traits<wchar_t>, std::allocator<wchar_t> > >, std::allocator<std::pair<std::basic_string<wchar_t, std::char_traits<wchar_t>, std::allocator<wchar_t> > const, WCPattern*> > >::~map()
	_ZNSt3mapISbIwSt11char_traitsIwESaIwEEP9WCPatternSt4lessIS3_ESaISt4pairIKS3_S5_EEED1Ev @ 1244
;	std::map<std::basic_string<wchar_t, std::char_traits<wchar_t>, std::allocator<wchar_t> >, WCPattern*, std::less<std::basic_string<wchar_t, std::char_traits<wchar_t>, std::allocator<wchar_t> > >, std::allocator<std::pair<std::basic_string<wchar_t, std::char_traits<wchar_t>, std::allocator<wchar_t> > const, WCPattern*> > >::operator[](std::basic_string<wchar_t, std::char_traits<wchar_t>, std::allocator<wchar_t> > const&)
	_ZNSt3mapISbIwSt11char_traitsIwESaIwEEP9WCPatternSt4lessIS3_ESaISt4pairIKS3_S5_EEEixERS9_ @ 1245
;	std::map<std::basic_string<wchar_t, std::char_traits<wchar_t>, std::allocator<wchar_t> >, std::pair<std::basic_string<wchar_t, std::char_traits<wchar_t>, std::allocator<wchar_t> >, unsigned long>, std::less<std::basic_string<wchar_t, std::char_traits<wchar_t>, std::allocator<wchar_t> > >, std::allocator<std::pair<std::basic_string<wchar_t, std::char_traits<wchar_t>, std::allocator<wchar_t> > const, std::pair<std::basic_string<wchar_t, std::char_traits<wchar_t>, std::allocator<wchar_t> >, unsigned long> > > >::lower_bound(std::basic_string<wchar_t, std::char_traits<wchar_t>, std::allocator<wchar_t> > const&)
	_ZNSt3mapISbIwSt11char_traitsIwESaIwEESt4pairIS3_mESt4lessIS3_ESaIS4_IKS3_S5_EEE11lower_boundERS8_ @ 1246
;	std::map<std::basic_string<wchar_t, std::char_traits<wchar_t>, std::allocator<wchar_t> >, std::pair<std::basic_string<wchar_t, std::char_traits<wchar_t>, std::allocator<wchar_t> >, unsigned long>, std::less<std::basic_string<wchar_t, std::char_traits<wchar_t>, std::allocator<wchar_t> > >, std::allocator<std::pair<std::basic_string<wchar_t, std::char_traits<wchar_t>, std::allocator<wchar_t> > const, std::pair<std::basic_string<wchar_t, std::char_traits<wchar_t>, std::allocator<wchar_t> >, unsigned long> > > >::end()
	_ZNSt3mapISbIwSt11char_traitsIwESaIwEESt4pairIS3_mESt4lessIS3_ESaIS4_IKS3_S5_EEE3endEv @ 1247
;	std::map<std::basic_string<wchar_t, std::char_traits<wchar_t>, std::allocator<wchar_t> >, std::pair<std::basic_string<wchar_t, std::char_traits<wchar_t>, std::allocator<wchar_t> >, unsigned long>, std::less<std::basic_string<wchar_t, std::char_traits<wchar_t>, std::allocator<wchar_t> > >, std::allocator<std::pair<std::basic_string<wchar_t, std::char_traits<wchar_t>, std::allocator<wchar_t> > const, std::pair<std::basic_string<wchar_t, std::char_traits<wchar_t>, std::allocator<wchar_t> >, unsigned long> > > >::find(std::basic_string<wchar_t, std::char_traits<wchar_t>, std::allocator<wchar_t> > const&)
	_ZNSt3mapISbIwSt11char_traitsIwESaIwEESt4pairIS3_mESt4lessIS3_ESaIS4_IKS3_S5_EEE4findERS8_ @ 1248
;	std::map<std::basic_string<wchar_t, std::char_traits<wchar_t>, std::allocator<wchar_t> >, std::pair<std::basic_string<wchar_t, std::char_traits<wchar_t>, std::allocator<wchar_t> >, unsigned long>, std::less<std::basic_string<wchar_t, std::char_traits<wchar_t>, std::allocator<wchar_t> > >, std::allocator<std::pair<std::basic_string<wchar_t, std::char_traits<wchar_t>, std::allocator<wchar_t> > const, std::pair<std::basic_string<wchar_t, std::char_traits<wchar_t>, std::allocator<wchar_t> >, unsigned long> > > >::clear()
	_ZNSt3mapISbIwSt11char_traitsIwESaIwEESt4pairIS3_mESt4lessIS3_ESaIS4_IKS3_S5_EEE5clearEv @ 1249
;	std::map<std::basic_string<wchar_t, std::char_traits<wchar_t>, std::allocator<wchar_t> >, std::pair<std::basic_string<wchar_t, std::char_traits<wchar_t>, std::allocator<wchar_t> >, unsigned long>, std::less<std::basic_string<wchar_t, std::char_traits<wchar_t>, std::allocator<wchar_t> > >, std::allocator<std::pair<std::basic_string<wchar_t, std::char_traits<wchar_t>, std::allocator<wchar_t> > const, std::pair<std::basic_string<wchar_t, std::char_traits<wchar_t>, std::allocator<wchar_t> >, unsigned long> > > >::insert(std::_Rb_tree_iterator<std::pair<std::basic_string<wchar_t, std::char_traits<wchar_t>, std::allocator<wchar_t> > const, std::pair<std::basic_string<wchar_t, std::char_traits<wchar_t>, std::allocator<wchar_t> >, unsigned long> > >, std::pair<std::basic_string<wchar_t, std::char_traits<wchar_t>, std::allocator<wchar_t> > const, std::pair<std::basic_string<wchar_t, std::char_traits<wchar_t>, std::allocator<wchar_t> >, unsigned long> > const&)
	_ZNSt3mapISbIwSt11char_traitsIwESaIwEESt4pairIS3_mESt4lessIS3_ESaIS4_IKS3_S5_EEE6insertESt17_Rb_tree_iteratorIS9_ERKS9_ @ 1250
;	std::map<std::basic_string<wchar_t, std::char_traits<wchar_t>, std::allocator<wchar_t> >, std::pair<std::basic_string<wchar_t, std::char_traits<wchar_t>, std::allocator<wchar_t> >, unsigned long>, std::less<std::basic_string<wchar_t, std::char_traits<wchar_t>, std::allocator<wchar_t> > >, std::allocator<std::pair<std::basic_string<wchar_t, std::char_traits<wchar_t>, std::allocator<wchar_t> > const, std::pair<std::basic_string<wchar_t, std::char_traits<wchar_t>, std::allocator<wchar_t> >, unsigned long> > > >::map()
	_ZNSt3mapISbIwSt11char_traitsIwESaIwEESt4pairIS3_mESt4lessIS3_ESaIS4_IKS3_S5_EEEC1Ev @ 1251
;	std::map<std::basic_string<wchar_t, std::char_traits<wchar_t>, std::allocator<wchar_t> >, std::pair<std::basic_string<wchar_t, std::char_traits<wchar_t>, std::allocator<wchar_t> >, unsigned long>, std::less<std::basic_string<wchar_t, std::char_traits<wchar_t>, std::allocator<wchar_t> > >, std::allocator<std::pair<std::basic_string<wchar_t, std::char_traits<wchar_t>, std::allocator<wchar_t> > const, std::pair<std::basic_string<wchar_t, std::char_traits<wchar_t>, std::allocator<wchar_t> >, unsigned long> > > >::~map()
	_ZNSt3mapISbIwSt11char_traitsIwESaIwEESt4pairIS3_mESt4lessIS3_ESaIS4_IKS3_S5_EEED1Ev @ 1252
;	std::map<std::basic_string<wchar_t, std::char_traits<wchar_t>, std::allocator<wchar_t> >, std::pair<std::basic_string<wchar_t, std::char_traits<wchar_t>, std::allocator<wchar_t> >, unsigned long>, std::less<std::basic_string<wchar_t, std::char_traits<wchar_t>, std::allocator<wchar_t> > >, std::allocator<std::pair<std::basic_string<wchar_t, std::char_traits<wchar_t>, std::allocator<wchar_t> > const, std::pair<std::basic_string<wchar_t, std::char_traits<wchar_t>, std::allocator<wchar_t> >, unsigned long> > > >::operator[](std::basic_string<wchar_t, std::char_traits<wchar_t>, std::allocator<wchar_t> > const&)
	_ZNSt3mapISbIwSt11char_traitsIwESaIwEESt4pairIS3_mESt4lessIS3_ESaIS4_IKS3_S5_EEEixERS8_ @ 1253
;	std::map<std::string, Pattern*, std::less<std::string>, std::allocator<std::pair<std::string const, Pattern*> > >::lower_bound(std::string const&)
	_ZNSt3mapISsP7PatternSt4lessISsESaISt4pairIKSsS1_EEE11lower_boundERS5_ @ 1254
;	std::map<std::string, Pattern*, std::less<std::string>, std::allocator<std::pair<std::string const, Pattern*> > >::end()
	_ZNSt3mapISsP7PatternSt4lessISsESaISt4pairIKSsS1_EEE3endEv @ 1255
;	std::map<std::string, Pattern*, std::less<std::string>, std::allocator<std::pair<std::string const, Pattern*> > >::find(std::string const&)
	_ZNSt3mapISsP7PatternSt4lessISsESaISt4pairIKSsS1_EEE4findERS5_ @ 1256
;	std::map<std::string, Pattern*, std::less<std::string>, std::allocator<std::pair<std::string const, Pattern*> > >::begin()
	_ZNSt3mapISsP7PatternSt4lessISsESaISt4pairIKSsS1_EEE5beginEv @ 1257
;	std::map<std::string, Pattern*, std::less<std::string>, std::allocator<std::pair<std::string const, Pattern*> > >::clear()
	_ZNSt3mapISsP7PatternSt4lessISsESaISt4pairIKSsS1_EEE5clearEv @ 1258
;	std::map<std::string, Pattern*, std::less<std::string>, std::allocator<std::pair<std::string const, Pattern*> > >::insert(std::_Rb_tree_iterator<std::pair<std::string const, Pattern*> >, std::pair<std::string const, Pattern*> const&)
	_ZNSt3mapISsP7PatternSt4lessISsESaISt4pairIKSsS1_EEE6insertESt17_Rb_tree_iteratorIS6_ERKS6_ @ 1259
;	std::map<std::string, Pattern*, std::less<std::string>, std::allocator<std::pair<std::string const, Pattern*> > >::map()
	_ZNSt3mapISsP7PatternSt4lessISsESaISt4pairIKSsS1_EEEC1Ev @ 1260
;	std::map<std::string, Pattern*, std::less<std::string>, std::allocator<std::pair<std::string const, Pattern*> > >::~map()
	_ZNSt3mapISsP7PatternSt4lessISsESaISt4pairIKSsS1_EEED1Ev @ 1261
;	std::map<std::string, Pattern*, std::less<std::string>, std::allocator<std::pair<std::string const, Pattern*> > >::operator[](std::string const&)
	_ZNSt3mapISsP7PatternSt4lessISsESaISt4pairIKSsS1_EEEixERS5_ @ 1262
;	std::map<std::string, std::pair<std::string, unsigned long>, std::less<std::string>, std::allocator<std::pair<std::string const, std::pair<std::string, unsigned long> > > >::lower_bound(std::string const&)
	_ZNSt3mapISsSt4pairISsmESt4lessISsESaIS0_IKSsS1_EEE11lower_boundERS4_ @ 1263
;	std::map<std::string, std::pair<std::string, unsigned long>, std::less<std::string>, std::allocator<std::pair<std::string const, std::pair<std::string, unsigned long> > > >::end()
	_ZNSt3mapISsSt4pairISsmESt4lessISsESaIS0_IKSsS1_EEE3endEv @ 1264
;	std::map<std::string, std::pair<std::string, unsigned long>, std::less<std::string>, std::allocator<std::pair<std::string const, std::pair<std::string, unsigned long> > > >::find(std::string const&)
	_ZNSt3mapISsSt4pairISsmESt4lessISsESaIS0_IKSsS1_EEE4findERS4_ @ 1265
;	std::map<std::string, std::pair<std::string, unsigned long>, std::less<std::string>, std::allocator<std::pair<std::string const, std::pair<std::string, unsigned long> > > >::clear()
	_ZNSt3mapISsSt4pairISsmESt4lessISsESaIS0_IKSsS1_EEE5clearEv @ 1266
;	std::map<std::string, std::pair<std::string, unsigned long>, std::less<std::string>, std::allocator<std::pair<std::string const, std::pair<std::string, unsigned long> > > >::insert(std::_Rb_tree_iterator<std::pair<std::string const, std::pair<std::string, unsigned long> > >, std::pair<std::string const, std::pair<std::string, unsigned long> > const&)
	_ZNSt3mapISsSt4pairISsmESt4lessISsESaIS0_IKSsS1_EEE6insertESt17_Rb_tree_iteratorIS5_ERKS5_ @ 1267
;	std::map<std::string, std::pair<std::string, unsigned long>, std::less<std::string>, std::allocator<std::pair<std::string const, std::pair<std::string, unsigned long> > > >::map()
	_ZNSt3mapISsSt4pairISsmESt4lessISsESaIS0_IKSsS1_EEEC1Ev @ 1268
;	std::map<std::string, std::pair<std::string, unsigned long>, std::less<std::string>, std::allocator<std::pair<std::string const, std::pair<std::string, unsigned long> > > >::~map()
	_ZNSt3mapISsSt4pairISsmESt4lessISsESaIS0_IKSsS1_EEED1Ev @ 1269
;	std::map<std::string, std::pair<std::string, unsigned long>, std::less<std::string>, std::allocator<std::pair<std::string const, std::pair<std::string, unsigned long> > > >::operator[](std::string const&)
	_ZNSt3mapISsSt4pairISsmESt4lessISsESaIS0_IKSsS1_EEEixERS4_ @ 1270
;	std::map<char, bool, std::less<char>, std::allocator<std::pair<char const, bool> > >::lower_bound(char const&)
	_ZNSt3mapIcbSt4lessIcESaISt4pairIKcbEEE11lower_boundERS3_ @ 1271
;	std::map<char, bool, std::less<char>, std::allocator<std::pair<char const, bool> > >::end()
	_ZNSt3mapIcbSt4lessIcESaISt4pairIKcbEEE3endEv @ 1272
;	std::map<char, bool, std::less<char>, std::allocator<std::pair<char const, bool> > >::find(char const&)
	_ZNSt3mapIcbSt4lessIcESaISt4pairIKcbEEE4findERS3_ @ 1273
;	std::map<char, bool, std::less<char>, std::allocator<std::pair<char const, bool> > >::insert(std::_Rb_tree_iterator<std::pair<char const, bool> >, std::pair<char const, bool> const&)
	_ZNSt3mapIcbSt4lessIcESaISt4pairIKcbEEE6insertESt17_Rb_tree_iteratorIS4_ERKS4_ @ 1274
;	std::map<char, bool, std::less<char>, std::allocator<std::pair<char const, bool> > >::map()
	_ZNSt3mapIcbSt4lessIcESaISt4pairIKcbEEEC1Ev @ 1275
;	std::map<char, bool, std::less<char>, std::allocator<std::pair<char const, bool> > >::~map()
	_ZNSt3mapIcbSt4lessIcESaISt4pairIKcbEEED1Ev @ 1276
;	std::map<char, bool, std::less<char>, std::allocator<std::pair<char const, bool> > >::operator[](char const&)
	_ZNSt3mapIcbSt4lessIcESaISt4pairIKcbEEEixERS3_ @ 1277
;	std::map<wchar_t, bool, std::less<wchar_t>, std::allocator<std::pair<wchar_t const, bool> > >::lower_bound(wchar_t const&)
	_ZNSt3mapIwbSt4lessIwESaISt4pairIKwbEEE11lower_boundERS3_ @ 1278
;	std::map<wchar_t, bool, std::less<wchar_t>, std::allocator<std::pair<wchar_t const, bool> > >::end()
	_ZNSt3mapIwbSt4lessIwESaISt4pairIKwbEEE3endEv @ 1279
;	std::map<wchar_t, bool, std::less<wchar_t>, std::allocator<std::pair<wchar_t const, bool> > >::find(wchar_t const&)
	_ZNSt3mapIwbSt4lessIwESaISt4pairIKwbEEE4findERS3_ @ 1280
;	std::map<wchar_t, bool, std::less<wchar_t>, std::allocator<std::pair<wchar_t const, bool> > >::insert(std::_Rb_tree_iterator<std::pair<wchar_t const, bool> >, std::pair<wchar_t const, bool> const&)
	_ZNSt3mapIwbSt4lessIwESaISt4pairIKwbEEE6insertESt17_Rb_tree_iteratorIS4_ERKS4_ @ 1281
;	std::map<wchar_t, bool, std::less<wchar_t>, std::allocator<std::pair<wchar_t const, bool> > >::map()
	_ZNSt3mapIwbSt4lessIwESaISt4pairIKwbEEEC1Ev @ 1282
;	std::map<wchar_t, bool, std::less<wchar_t>, std::allocator<std::pair<wchar_t const, bool> > >::~map()
	_ZNSt3mapIwbSt4lessIwESaISt4pairIKwbEEED1Ev @ 1283
;	std::map<wchar_t, bool, std::less<wchar_t>, std::allocator<std::pair<wchar_t const, bool> > >::operator[](wchar_t const&)
	_ZNSt3mapIwbSt4lessIwESaISt4pairIKwbEEEixERS3_ @ 1284
;	std::pair<NFANode* const, bool>::pair(NFANode* const&, bool const&)
	_ZNSt4pairIKP7NFANodebEC1ERS2_RKb @ 1285
;	std::pair<NFAUNode* const, bool>::pair(NFAUNode* const&, bool const&)
	_ZNSt4pairIKP8NFAUNodebEC1ERS2_RKb @ 1286
;	std::pair<std::basic_string<wchar_t, std::char_traits<wchar_t>, std::allocator<wchar_t> > const, WCPattern*>::pair(std::pair<std::basic_string<wchar_t, std::char_traits<wchar_t>, std::allocator<wchar_t> > const, WCPattern*> const&)
	_ZNSt4pairIKSbIwSt11char_traitsIwESaIwEEP9WCPatternEC1ERKS7_ @ 1287
;	std::pair<std::basic_string<wchar_t, std::char_traits<wchar_t>, std::allocator<wchar_t> > const, WCPattern*>::pair(std::basic_string<wchar_t, std::char_traits<wchar_t>, std::allocator<wchar_t> > const&, WCPattern* const&)
	_ZNSt4pairIKSbIwSt11char_traitsIwESaIwEEP9WCPatternEC1ERS4_RKS6_ @ 1288
;	std::pair<std::basic_string<wchar_t, std::char_traits<wchar_t>, std::allocator<wchar_t> > const, WCPattern*>::~pair()
	_ZNSt4pairIKSbIwSt11char_traitsIwESaIwEEP9WCPatternED1Ev @ 1289
;	std::pair<std::basic_string<wchar_t, std::char_traits<wchar_t>, std::allocator<wchar_t> > const, std::pair<std::basic_string<wchar_t, std::char_traits<wchar_t>, std::allocator<wchar_t> >, unsigned long> >::pair(std::pair<std::basic_string<wchar_t, std::char_traits<wchar_t>, std::allocator<wchar_t> > const, std::pair<std::basic_string<wchar_t, std::char_traits<wchar_t>, std::allocator<wchar_t> >, unsigned long> > const&)
	_ZNSt4pairIKSbIwSt11char_traitsIwESaIwEES_IS3_mEEC1ERKS6_ @ 1290
;	std::pair<std::basic_string<wchar_t, std::char_traits<wchar_t>, std::allocator<wchar_t> > const, std::pair<std::basic_string<wchar_t, std::char_traits<wchar_t>, std::allocator<wchar_t> >, unsigned long> >::pair(std::basic_string<wchar_t, std::char_traits<wchar_t>, std::allocator<wchar_t> > const&, std::pair<std::basic_string<wchar_t, std::char_traits<wchar_t>, std::allocator<wchar_t> >, unsigned long> const&)
	_ZNSt4pairIKSbIwSt11char_traitsIwESaIwEES_IS3_mEEC1ERS4_RKS5_ @ 1291
;	std::pair<std::basic_string<wchar_t, std::char_traits<wchar_t>, std::allocator<wchar_t> > const, std::pair<std::basic_string<wchar_t, std::char_traits<wchar_t>, std::allocator<wchar_t> >, unsigned long> >::~pair()
	_ZNSt4pairIKSbIwSt11char_traitsIwESaIwEES_IS3_mEED1Ev @ 1292
;	std::pair<std::string const, Pattern*>::pair(std::pair<std::string const, Pattern*> const&)
	_ZNSt4pairIKSsP7PatternEC1ERKS3_ @ 1293
;	std::pair<std::string const, Pattern*>::pair(std::string const&, Pattern* const&)
	_ZNSt4pairIKSsP7PatternEC1ERS0_RKS2_ @ 1294
;	std::pair<std::string const, Pattern*>::~pair()
	_ZNSt4pairIKSsP7PatternED1Ev @ 1295
;	std::pair<std::string const, std::pair<std::string, unsigned long> >::pair(std::pair<std::string const, std::pair<std::string, unsigned long> > const&)
	_ZNSt4pairIKSsS_ISsmEEC1ERKS2_ @ 1296
;	std::pair<std::string const, std::pair<std::string, unsigned long> >::pair(std::string const&, std::pair<std::string, unsigned long> const&)
	_ZNSt4pairIKSsS_ISsmEEC1ERS0_RKS1_ @ 1297
;	std::pair<std::string const, std::pair<std::string, unsigned long> >::~pair()
	_ZNSt4pairIKSsS_ISsmEED1Ev @ 1298
;	std::pair<char const, bool>::pair(char const&, bool const&)
	_ZNSt4pairIKcbEC1ERS0_RKb @ 1299
;	std::pair<wchar_t const, bool>::pair(wchar_t const&, bool const&)
	_ZNSt4pairIKwbEC1ERS0_RKb @ 1300
;	std::pair<std::basic_string<wchar_t, std::char_traits<wchar_t>, std::allocator<wchar_t> >, int>::pair()
	_ZNSt4pairISbIwSt11char_traitsIwESaIwEEiEC1Ev @ 1301
;	std::pair<std::basic_string<wchar_t, std::char_traits<wchar_t>, std::allocator<wchar_t> >, int>::~pair()
	_ZNSt4pairISbIwSt11char_traitsIwESaIwEEiED1Ev @ 1302
;	std::pair<std::basic_string<wchar_t, std::char_traits<wchar_t>, std::allocator<wchar_t> >, unsigned long>::pair(std::basic_string<wchar_t, std::char_traits<wchar_t>, std::allocator<wchar_t> > const&, unsigned long const&)
	_ZNSt4pairISbIwSt11char_traitsIwESaIwEEmEC1ERKS3_RKm @ 1303
;	std::pair<std::basic_string<wchar_t, std::char_traits<wchar_t>, std::allocator<wchar_t> >, unsigned long>::pair(std::pair<std::basic_string<wchar_t, std::char_traits<wchar_t>, std::allocator<wchar_t> >, unsigned long> const&)
	_ZNSt4pairISbIwSt11char_traitsIwESaIwEEmEC1ERKS4_ @ 1304
;	std::pair<std::basic_string<wchar_t, std::char_traits<wchar_t>, std::allocator<wchar_t> >, unsigned long>::pair()
	_ZNSt4pairISbIwSt11char_traitsIwESaIwEEmEC1Ev @ 1305
;	std::pair<std::basic_string<wchar_t, std::char_traits<wchar_t>, std::allocator<wchar_t> >, unsigned long>::~pair()
	_ZNSt4pairISbIwSt11char_traitsIwESaIwEEmED1Ev @ 1306
;	std::pair<std::basic_string<wchar_t, std::char_traits<wchar_t>, std::allocator<wchar_t> >, unsigned long>::operator=(std::pair<std::basic_string<wchar_t, std::char_traits<wchar_t>, std::allocator<wchar_t> >, unsigned long> const&)
	_ZNSt4pairISbIwSt11char_traitsIwESaIwEEmEaSERKS4_ @ 1307
;	std::pair<std::string, int>::pair()
	_ZNSt4pairISsiEC1Ev @ 1308
;	std::pair<std::string, int>::~pair()
	_ZNSt4pairISsiED1Ev @ 1309
;	std::pair<std::string, unsigned long>::pair(std::pair<std::string, unsigned long> const&)
	_ZNSt4pairISsmEC1ERKS0_ @ 1310
;	std::pair<std::string, unsigned long>::pair(std::string const&, unsigned long const&)
	_ZNSt4pairISsmEC1ERKSsRKm @ 1311
;	std::pair<std::string, unsigned long>::pair()
	_ZNSt4pairISsmEC1Ev @ 1312
;	std::pair<std::string, unsigned long>::~pair()
	_ZNSt4pairISsmED1Ev @ 1313
;	std::pair<std::string, unsigned long>::operator=(std::pair<std::string, unsigned long> const&)
	_ZNSt4pairISsmEaSERKS0_ @ 1314
;	std::pair<std::_Rb_tree_iterator<std::pair<NFANode* const, bool> >, bool>::pair(std::_Rb_tree_iterator<std::pair<NFANode* const, bool> > const&, bool const&)
	_ZNSt4pairISt17_Rb_tree_iteratorIS_IKP7NFANodebEEbEC1ERKS5_RKb @ 1315
;	std::pair<std::_Rb_tree_iterator<std::pair<NFAUNode* const, bool> >, bool>::pair(std::_Rb_tree_iterator<std::pair<NFAUNode* const, bool> > const&, bool const&)
	_ZNSt4pairISt17_Rb_tree_iteratorIS_IKP8NFAUNodebEEbEC1ERKS5_RKb @ 1316
;	std::pair<std::_Rb_tree_iterator<std::pair<std::basic_string<wchar_t, std::char_traits<wchar_t>, std::allocator<wchar_t> > const, WCPattern*> >, bool>::pair(std::_Rb_tree_iterator<std::pair<std::basic_string<wchar_t, std::char_traits<wchar_t>, std::allocator<wchar_t> > const, WCPattern*> > const&, bool const&)
	_ZNSt4pairISt17_Rb_tree_iteratorIS_IKSbIwSt11char_traitsIwESaIwEEP9WCPatternEEbEC1ERKS9_RKb @ 1317
;	std::pair<std::_Rb_tree_iterator<std::pair<std::basic_string<wchar_t, std::char_traits<wchar_t>, std::allocator<wchar_t> > const, std::pair<std::basic_string<wchar_t, std::char_traits<wchar_t>, std::allocator<wchar_t> >, unsigned long> > >, bool>::pair(std::_Rb_tree_iterator<std::pair<std::basic_string<wchar_t, std::char_traits<wchar_t>, std::allocator<wchar_t> > const, std::pair<std::basic_string<wchar_t, std::char_traits<wchar_t>, std::allocator<wchar_t> >, unsigned long> > > const&, bool const&)
	_ZNSt4pairISt17_Rb_tree_iteratorIS_IKSbIwSt11char_traitsIwESaIwEES_IS4_mEEEbEC1ERKS8_RKb @ 1318
;	std::pair<std::_Rb_tree_iterator<std::pair<std::string const, Pattern*> >, bool>::pair(std::_Rb_tree_iterator<std::pair<std::string const, Pattern*> > const&, bool const&)
	_ZNSt4pairISt17_Rb_tree_iteratorIS_IKSsP7PatternEEbEC1ERKS5_RKb @ 1319
;	std::pair<std::_Rb_tree_iterator<std::pair<std::string const, std::pair<std::string, unsigned long> > >, bool>::pair(std::_Rb_tree_iterator<std::pair<std::string const, std::pair<std::string, unsigned long> > > const&, bool const&)
	_ZNSt4pairISt17_Rb_tree_iteratorIS_IKSsS_ISsmEEEbEC1ERKS4_RKb @ 1320
;	std::pair<std::_Rb_tree_iterator<std::pair<char const, bool> >, bool>::pair(std::_Rb_tree_iterator<std::pair<char const, bool> > const&, bool const&)
	_ZNSt4pairISt17_Rb_tree_iteratorIS_IKcbEEbEC1ERKS3_RKb @ 1321
;	std::pair<std::_Rb_tree_iterator<std::pair<wchar_t const, bool> >, bool>::pair(std::_Rb_tree_iterator<std::pair<wchar_t const, bool> > const&, bool const&)
	_ZNSt4pairISt17_Rb_tree_iteratorIS_IKwbEEbEC1ERKS3_RKb @ 1322
;	std::vector<std::basic_string<wchar_t, std::char_traits<wchar_t>, std::allocator<wchar_t> >, std::allocator<std::basic_string<wchar_t, std::char_traits<wchar_t>, std::allocator<wchar_t> > > >::_M_insert_aux(__gnu_cxx::__normal_iterator<std::basic_string<wchar_t, std::char_traits<wchar_t>, std::allocator<wchar_t> >*, std::vector<std::basic_string<wchar_t, std::char_traits<wchar_t>, std::allocator<wchar_t> >, std::allocator<std::basic_string<wchar_t, std::char_traits<wchar_t>, std::allocator<wchar_t> > > > >, std::basic_string<wchar_t, std::char_traits<wchar_t>, std::allocator<wchar_t> > const&)
	_ZNSt6vectorISbIwSt11char_traitsIwESaIwEESaIS3_EE13_M_insert_auxEN9__gnu_cxx17__normal_iteratorIPS3_S5_EERKS3_ @ 1323
;	std::basic_string<wchar_t, std::char_traits<wchar_t>, std::allocator<wchar_t> >* std::vector<std::basic_string<wchar_t, std::char_traits<wchar_t>, std::allocator<wchar_t> >, std::allocator<std::basic_string<wchar_t, std::char_traits<wchar_t>, std::allocator<wchar_t> > > >::_M_allocate_and_copy<__gnu_cxx::__normal_iterator<std::basic_string<wchar_t, std::char_traits<wchar_t>, std::allocator<wchar_t> > const*, std::vector<std::basic_string<wchar_t, std::char_traits<wchar_t>, std::allocator<wchar_t> >, std::allocator<std::basic_string<wchar_t, std::char_traits<wchar_t>, std::allocator<wchar_t> > > > > >(unsigned int, __gnu_cxx::__normal_iterator<std::basic_string<wchar_t, std::char_traits<wchar_t>, std::allocator<wchar_t> > const*, std::vector<std::basic_string<wchar_t, std::char_traits<wchar_t>, std::allocator<wchar_t> >, std::allocator<std::basic_string<wchar_t, std::char_traits<wchar_t>, std::allocator<wchar_t> > > > >, __gnu_cxx::__normal_iterator<std::basic_string<wchar_t, std::char_traits<wchar_t>, std::allocator<wchar_t> > const*, std::vector<std::basic_string<wchar_t, std::char_traits<wchar_t>, std::allocator<wchar_t> >, std::allocator<std::basic_string<wchar_t, std::char_traits<wchar_t>, std::allocator<wchar_t> > > > >)
	_ZNSt6vectorISbIwSt11char_traitsIwESaIwEESaIS3_EE20_M_allocate_and_copyIN9__gnu_cxx17__normal_iteratorIPKS3_S5_EEEEPS3_jT_SD_ @ 1324
;	std::vector<std::basic_string<wchar_t, std::char_traits<wchar_t>, std::allocator<wchar_t> >, std::allocator<std::basic_string<wchar_t, std::char_traits<wchar_t>, std::allocator<wchar_t> > > >::end()
	_ZNSt6vectorISbIwSt11char_traitsIwESaIwEESaIS3_EE3endEv @ 1325
;	std::vector<std::basic_string<wchar_t, std::char_traits<wchar_t>, std::allocator<wchar_t> >, std::allocator<std::basic_string<wchar_t, std::char_traits<wchar_t>, std::allocator<wchar_t> > > >::begin()
	_ZNSt6vectorISbIwSt11char_traitsIwESaIwEESaIS3_EE5beginEv @ 1326
;	std::vector<std::basic_string<wchar_t, std::char_traits<wchar_t>, std::allocator<wchar_t> >, std::allocator<std::basic_string<wchar_t, std::char_traits<wchar_t>, std::allocator<wchar_t> > > >::push_back(std::basic_string<wchar_t, std::char_traits<wchar_t>, std::allocator<wchar_t> > const&)
	_ZNSt6vectorISbIwSt11char_traitsIwESaIwEESaIS3_EE9push_backERKS3_ @ 1327
;	std::vector<std::basic_string<wchar_t, std::char_traits<wchar_t>, std::allocator<wchar_t> >, std::allocator<std::basic_string<wchar_t, std::char_traits<wchar_t>, std::allocator<wchar_t> > > >::vector(std::allocator<std::basic_string<wchar_t, std::char_traits<wchar_t>, std::allocator<wchar_t> > > const&)
	_ZNSt6vectorISbIwSt11char_traitsIwESaIwEESaIS3_EEC1ERKS4_ @ 1328
;	std::vector<std::basic_string<wchar_t, std::char_traits<wchar_t>, std::allocator<wchar_t> >, std::allocator<std::basic_string<wchar_t, std::char_traits<wchar_t>, std::allocator<wchar_t> > > >::~vector()
	_ZNSt6vectorISbIwSt11char_traitsIwESaIwEESaIS3_EED1Ev @ 1329
;	std::vector<std::basic_string<wchar_t, std::char_traits<wchar_t>, std::allocator<wchar_t> >, std::allocator<std::basic_string<wchar_t, std::char_traits<wchar_t>, std::allocator<wchar_t> > > >::operator=(std::vector<std::basic_string<wchar_t, std::char_traits<wchar_t>, std::allocator<wchar_t> >, std::allocator<std::basic_string<wchar_t, std::char_traits<wchar_t>, std::allocator<wchar_t> > > > const&)
	_ZNSt6vectorISbIwSt11char_traitsIwESaIwEESaIS3_EEaSERKS5_ @ 1330
;	std::vector<std::string, std::allocator<std::string> >::_M_insert_aux(__gnu_cxx::__normal_iterator<std::string*, std::vector<std::string, std::allocator<std::string> > >, std::string const&)
	_ZNSt6vectorISsSaISsEE13_M_insert_auxEN9__gnu_cxx17__normal_iteratorIPSsS1_EERKSs @ 1331
;	std::string* std::vector<std::string, std::allocator<std::string> >::_M_allocate_and_copy<__gnu_cxx::__normal_iterator<std::string const*, std::vector<std::string, std::allocator<std::string> > > >(unsigned int, __gnu_cxx::__normal_iterator<std::string const*, std::vector<std::string, std::allocator<std::string> > >, __gnu_cxx::__normal_iterator<std::string const*, std::vector<std::string, std::allocator<std::string> > >)
	_ZNSt6vectorISsSaISsEE20_M_allocate_and_copyIN9__gnu_cxx17__normal_iteratorIPKSsS1_EEEEPSsjT_S9_ @ 1332
;	std::vector<std::string, std::allocator<std::string> >::end()
	_ZNSt6vectorISsSaISsEE3endEv @ 1333
;	std::vector<std::string, std::allocator<std::string> >::begin()
	_ZNSt6vectorISsSaISsEE5beginEv @ 1334
;	std::vector<std::string, std::allocator<std::string> >::push_back(std::string const&)
	_ZNSt6vectorISsSaISsEE9push_backERKSs @ 1335
;	std::vector<std::string, std::allocator<std::string> >::vector(std::allocator<std::string> const&)
	_ZNSt6vectorISsSaISsEEC1ERKS0_ @ 1336
;	std::vector<std::string, std::allocator<std::string> >::~vector()
	_ZNSt6vectorISsSaISsEED1Ev @ 1337
;	std::vector<std::string, std::allocator<std::string> >::operator=(std::vector<std::string, std::allocator<std::string> > const&)
	_ZNSt6vectorISsSaISsEEaSERKS1_ @ 1338
;	std::_Rb_tree<NFANode*, std::pair<NFANode* const, bool>, std::_Select1st<std::pair<NFANode* const, bool> >, std::less<NFANode*>, std::allocator<std::pair<NFANode* const, bool> > >::_M_get_node()
	_ZNSt8_Rb_treeIP7NFANodeSt4pairIKS1_bESt10_Select1stIS4_ESt4lessIS1_ESaIS4_EE11_M_get_nodeEv @ 1339
;	std::_Rb_tree<NFANode*, std::pair<NFANode* const, bool>, std::_Select1st<std::pair<NFANode* const, bool> >, std::less<NFANode*>, std::allocator<std::pair<NFANode* const, bool> > >::_M_leftmost()
	_ZNSt8_Rb_treeIP7NFANodeSt4pairIKS1_bESt10_Select1stIS4_ESt4lessIS1_ESaIS4_EE11_M_leftmostEv @ 1340
;	std::_Rb_tree<NFANode*, std::pair<NFANode* const, bool>, std::_Select1st<std::pair<NFANode* const, bool> >, std::less<NFANode*>, std::allocator<std::pair<NFANode* const, bool> > >::_M_put_node(std::_Rb_tree_node<std::pair<NFANode* const, bool> >*)
	_ZNSt8_Rb_treeIP7NFANodeSt4pairIKS1_bESt10_Select1stIS4_ESt4lessIS1_ESaIS4_EE11_M_put_nodeEPSt13_Rb_tree_nodeIS4_E @ 1341
;	std::_Rb_tree<NFANode*, std::pair<NFANode* const, bool>, std::_Select1st<std::pair<NFANode* const, bool> >, std::less<NFANode*>, std::allocator<std::pair<NFANode* const, bool> > >::lower_bound(NFANode* const&)
	_ZNSt8_Rb_treeIP7NFANodeSt4pairIKS1_bESt10_Select1stIS4_ESt4lessIS1_ESaIS4_EE11lower_boundERS3_ @ 1342
;	std::_Rb_tree<NFANode*, std::pair<NFANode* const, bool>, std::_Select1st<std::pair<NFANode* const, bool> >, std::less<NFANode*>, std::allocator<std::pair<NFANode* const, bool> > >::_M_rightmost()
	_ZNSt8_Rb_treeIP7NFANodeSt4pairIKS1_bESt10_Select1stIS4_ESt4lessIS1_ESaIS4_EE12_M_rightmostEv @ 1343
;	std::_Rb_tree<NFANode*, std::pair<NFANode* const, bool>, std::_Select1st<std::pair<NFANode* const, bool> >, std::less<NFANode*>, std::allocator<std::pair<NFANode* const, bool> > >::destroy_node(std::_Rb_tree_node<std::pair<NFANode* const, bool> >*)
	_ZNSt8_Rb_treeIP7NFANodeSt4pairIKS1_bESt10_Select1stIS4_ESt4lessIS1_ESaIS4_EE12destroy_nodeEPSt13_Rb_tree_nodeIS4_E @ 1344
;	std::_Rb_tree<NFANode*, std::pair<NFANode* const, bool>, std::_Select1st<std::pair<NFANode* const, bool> >, std::less<NFANode*>, std::allocator<std::pair<NFANode* const, bool> > >::_Rb_tree_impl<std::less<NFANode*>, false>::_Rb_tree_impl(std::allocator<std::_Rb_tree_node<std::pair<NFANode* const, bool> > > const&, std::less<NFANode*> const&)
	_ZNSt8_Rb_treeIP7NFANodeSt4pairIKS1_bESt10_Select1stIS4_ESt4lessIS1_ESaIS4_EE13_Rb_tree_implIS8_Lb0EEC1ERKSaISt13_Rb_tree_nodeIS4_EERKS8_ @ 1345
;	std::_Rb_tree<NFANode*, std::pair<NFANode* const, bool>, std::_Select1st<std::pair<NFANode* const, bool> >, std::less<NFANode*>, std::allocator<std::pair<NFANode* const, bool> > >::_Rb_tree_impl<std::less<NFANode*>, false>::~_Rb_tree_impl()
	_ZNSt8_Rb_treeIP7NFANodeSt4pairIKS1_bESt10_Select1stIS4_ESt4lessIS1_ESaIS4_EE13_Rb_tree_implIS8_Lb0EED1Ev @ 1346
;	std::_Rb_tree<NFANode*, std::pair<NFANode* const, bool>, std::_Select1st<std::pair<NFANode* const, bool> >, std::less<NFANode*>, std::allocator<std::pair<NFANode* const, bool> > >::insert_unique(std::pair<NFANode* const, bool> const&)
	_ZNSt8_Rb_treeIP7NFANodeSt4pairIKS1_bESt10_Select1stIS4_ESt4lessIS1_ESaIS4_EE13insert_uniqueERKS4_ @ 1347
;	std::_Rb_tree<NFANode*, std::pair<NFANode* const, bool>, std::_Select1st<std::pair<NFANode* const, bool> >, std::less<NFANode*>, std::allocator<std::pair<NFANode* const, bool> > >::insert_unique(std::_Rb_tree_iterator<std::pair<NFANode* const, bool> >, std::pair<NFANode* const, bool> const&)
	_ZNSt8_Rb_treeIP7NFANodeSt4pairIKS1_bESt10_Select1stIS4_ESt4lessIS1_ESaIS4_EE13insert_uniqueESt17_Rb_tree_iteratorIS4_ERKS4_ @ 1348
;	std::_Rb_tree<NFANode*, std::pair<NFANode* const, bool>, std::_Select1st<std::pair<NFANode* const, bool> >, std::less<NFANode*>, std::allocator<std::pair<NFANode* const, bool> > >::_M_create_node(std::pair<NFANode* const, bool> const&)
	_ZNSt8_Rb_treeIP7NFANodeSt4pairIKS1_bESt10_Select1stIS4_ESt4lessIS1_ESaIS4_EE14_M_create_nodeERKS4_ @ 1349
;	std::_Rb_tree<NFANode*, std::pair<NFANode* const, bool>, std::_Select1st<std::pair<NFANode* const, bool> >, std::less<NFANode*>, std::allocator<std::pair<NFANode* const, bool> > >::end()
	_ZNSt8_Rb_treeIP7NFANodeSt4pairIKS1_bESt10_Select1stIS4_ESt4lessIS1_ESaIS4_EE3endEv @ 1350
;	std::_Rb_tree<NFANode*, std::pair<NFANode* const, bool>, std::_Select1st<std::pair<NFANode* const, bool> >, std::less<NFANode*>, std::allocator<std::pair<NFANode* const, bool> > >::find(NFANode* const&)
	_ZNSt8_Rb_treeIP7NFANodeSt4pairIKS1_bESt10_Select1stIS4_ESt4lessIS1_ESaIS4_EE4findERS3_ @ 1351
;	std::_Rb_tree<NFANode*, std::pair<NFANode* const, bool>, std::_Select1st<std::pair<NFANode* const, bool> >, std::less<NFANode*>, std::allocator<std::pair<NFANode* const, bool> > >::begin()
	_ZNSt8_Rb_treeIP7NFANodeSt4pairIKS1_bESt10_Select1stIS4_ESt4lessIS1_ESaIS4_EE5beginEv @ 1352
;	std::_Rb_tree<NFANode*, std::pair<NFANode* const, bool>, std::_Select1st<std::pair<NFANode* const, bool> >, std::less<NFANode*>, std::allocator<std::pair<NFANode* const, bool> > >::_M_end()
	_ZNSt8_Rb_treeIP7NFANodeSt4pairIKS1_bESt10_Select1stIS4_ESt4lessIS1_ESaIS4_EE6_M_endEv @ 1353
;	std::_Rb_tree<NFANode*, std::pair<NFANode* const, bool>, std::_Select1st<std::pair<NFANode* const, bool> >, std::less<NFANode*>, std::allocator<std::pair<NFANode* const, bool> > >::_S_key(std::_Rb_tree_node<std::pair<NFANode* const, bool> > const*)
	_ZNSt8_Rb_treeIP7NFANodeSt4pairIKS1_bESt10_Select1stIS4_ESt4lessIS1_ESaIS4_EE6_S_keyEPKSt13_Rb_tree_nodeIS4_E @ 1354
;	std::_Rb_tree<NFANode*, std::pair<NFANode* const, bool>, std::_Select1st<std::pair<NFANode* const, bool> >, std::less<NFANode*>, std::allocator<std::pair<NFANode* const, bool> > >::_S_key(std::_Rb_tree_node_base const*)
	_ZNSt8_Rb_treeIP7NFANodeSt4pairIKS1_bESt10_Select1stIS4_ESt4lessIS1_ESaIS4_EE6_S_keyEPKSt18_Rb_tree_node_base @ 1355
;	std::_Rb_tree<NFANode*, std::pair<NFANode* const, bool>, std::_Select1st<std::pair<NFANode* const, bool> >, std::less<NFANode*>, std::allocator<std::pair<NFANode* const, bool> > >::_S_left(std::_Rb_tree_node_base*)
	_ZNSt8_Rb_treeIP7NFANodeSt4pairIKS1_bESt10_Select1stIS4_ESt4lessIS1_ESaIS4_EE7_S_leftEPSt18_Rb_tree_node_base @ 1356
;	std::_Rb_tree<NFANode*, std::pair<NFANode* const, bool>, std::_Select1st<std::pair<NFANode* const, bool> >, std::less<NFANode*>, std::allocator<std::pair<NFANode* const, bool> > >::_M_begin()
	_ZNSt8_Rb_treeIP7NFANodeSt4pairIKS1_bESt10_Select1stIS4_ESt4lessIS1_ESaIS4_EE8_M_beginEv @ 1357
;	std::_Rb_tree<NFANode*, std::pair<NFANode* const, bool>, std::_Select1st<std::pair<NFANode* const, bool> >, std::less<NFANode*>, std::allocator<std::pair<NFANode* const, bool> > >::_M_erase(std::_Rb_tree_node<std::pair<NFANode* const, bool> >*)
	_ZNSt8_Rb_treeIP7NFANodeSt4pairIKS1_bESt10_Select1stIS4_ESt4lessIS1_ESaIS4_EE8_M_eraseEPSt13_Rb_tree_nodeIS4_E @ 1358
;	std::_Rb_tree<NFANode*, std::pair<NFANode* const, bool>, std::_Select1st<std::pair<NFANode* const, bool> >, std::less<NFANode*>, std::allocator<std::pair<NFANode* const, bool> > >::_S_right(std::_Rb_tree_node_base*)
	_ZNSt8_Rb_treeIP7NFANodeSt4pairIKS1_bESt10_Select1stIS4_ESt4lessIS1_ESaIS4_EE8_S_rightEPSt18_Rb_tree_node_base @ 1359
;	std::_Rb_tree<NFANode*, std::pair<NFANode* const, bool>, std::_Select1st<std::pair<NFANode* const, bool> >, std::less<NFANode*>, std::allocator<std::pair<NFANode* const, bool> > >::_S_value(std::_Rb_tree_node<std::pair<NFANode* const, bool> > const*)
	_ZNSt8_Rb_treeIP7NFANodeSt4pairIKS1_bESt10_Select1stIS4_ESt4lessIS1_ESaIS4_EE8_S_valueEPKSt13_Rb_tree_nodeIS4_E @ 1360
;	std::_Rb_tree<NFANode*, std::pair<NFANode* const, bool>, std::_Select1st<std::pair<NFANode* const, bool> >, std::less<NFANode*>, std::allocator<std::pair<NFANode* const, bool> > >::_S_value(std::_Rb_tree_node_base const*)
	_ZNSt8_Rb_treeIP7NFANodeSt4pairIKS1_bESt10_Select1stIS4_ESt4lessIS1_ESaIS4_EE8_S_valueEPKSt18_Rb_tree_node_base @ 1361
;	std::_Rb_tree<NFANode*, std::pair<NFANode* const, bool>, std::_Select1st<std::pair<NFANode* const, bool> >, std::less<NFANode*>, std::allocator<std::pair<NFANode* const, bool> > >::_M_insert(std::_Rb_tree_node_base*, std::_Rb_tree_node_base*, std::pair<NFANode* const, bool> const&)
	_ZNSt8_Rb_treeIP7NFANodeSt4pairIKS1_bESt10_Select1stIS4_ESt4lessIS1_ESaIS4_EE9_M_insertEPSt18_Rb_tree_node_baseSC_RKS4_ @ 1362
;	std::_Rb_tree<NFANode*, std::pair<NFANode* const, bool>, std::_Select1st<std::pair<NFANode* const, bool> >, std::less<NFANode*>, std::allocator<std::pair<NFANode* const, bool> > >::_Rb_tree(std::less<NFANode*> const&, std::allocator<std::pair<NFANode* const, bool> > const&)
	_ZNSt8_Rb_treeIP7NFANodeSt4pairIKS1_bESt10_Select1stIS4_ESt4lessIS1_ESaIS4_EEC1ERKS8_RKS9_ @ 1363
;	std::_Rb_tree<NFANode*, std::pair<NFANode* const, bool>, std::_Select1st<std::pair<NFANode* const, bool> >, std::less<NFANode*>, std::allocator<std::pair<NFANode* const, bool> > >::~_Rb_tree()
	_ZNSt8_Rb_treeIP7NFANodeSt4pairIKS1_bESt10_Select1stIS4_ESt4lessIS1_ESaIS4_EED1Ev @ 1364
;	std::_Rb_tree<NFAUNode*, std::pair<NFAUNode* const, bool>, std::_Select1st<std::pair<NFAUNode* const, bool> >, std::less<NFAUNode*>, std::allocator<std::pair<NFAUNode* const, bool> > >::_M_get_node()
	_ZNSt8_Rb_treeIP8NFAUNodeSt4pairIKS1_bESt10_Select1stIS4_ESt4lessIS1_ESaIS4_EE11_M_get_nodeEv @ 1365
;	std::_Rb_tree<NFAUNode*, std::pair<NFAUNode* const, bool>, std::_Select1st<std::pair<NFAUNode* const, bool> >, std::less<NFAUNode*>, std::allocator<std::pair<NFAUNode* const, bool> > >::_M_leftmost()
	_ZNSt8_Rb_treeIP8NFAUNodeSt4pairIKS1_bESt10_Select1stIS4_ESt4lessIS1_ESaIS4_EE11_M_leftmostEv @ 1366
;	std::_Rb_tree<NFAUNode*, std::pair<NFAUNode* const, bool>, std::_Select1st<std::pair<NFAUNode* const, bool> >, std::less<NFAUNode*>, std::allocator<std::pair<NFAUNode* const, bool> > >::_M_put_node(std::_Rb_tree_node<std::pair<NFAUNode* const, bool> >*)
	_ZNSt8_Rb_treeIP8NFAUNodeSt4pairIKS1_bESt10_Select1stIS4_ESt4lessIS1_ESaIS4_EE11_M_put_nodeEPSt13_Rb_tree_nodeIS4_E @ 1367
;	std::_Rb_tree<NFAUNode*, std::pair<NFAUNode* const, bool>, std::_Select1st<std::pair<NFAUNode* const, bool> >, std::less<NFAUNode*>, std::allocator<std::pair<NFAUNode* const, bool> > >::lower_bound(NFAUNode* const&)
	_ZNSt8_Rb_treeIP8NFAUNodeSt4pairIKS1_bESt10_Select1stIS4_ESt4lessIS1_ESaIS4_EE11lower_boundERS3_ @ 1368
;	std::_Rb_tree<NFAUNode*, std::pair<NFAUNode* const, bool>, std::_Select1st<std::pair<NFAUNode* const, bool> >, std::less<NFAUNode*>, std::allocator<std::pair<NFAUNode* const, bool> > >::_M_rightmost()
	_ZNSt8_Rb_treeIP8NFAUNodeSt4pairIKS1_bESt10_Select1stIS4_ESt4lessIS1_ESaIS4_EE12_M_rightmostEv @ 1369
;	std::_Rb_tree<NFAUNode*, std::pair<NFAUNode* const, bool>, std::_Select1st<std::pair<NFAUNode* const, bool> >, std::less<NFAUNode*>, std::allocator<std::pair<NFAUNode* const, bool> > >::destroy_node(std::_Rb_tree_node<std::pair<NFAUNode* const, bool> >*)
	_ZNSt8_Rb_treeIP8NFAUNodeSt4pairIKS1_bESt10_Select1stIS4_ESt4lessIS1_ESaIS4_EE12destroy_nodeEPSt13_Rb_tree_nodeIS4_E @ 1370
;	std::_Rb_tree<NFAUNode*, std::pair<NFAUNode* const, bool>, std::_Select1st<std::pair<NFAUNode* const, bool> >, std::less<NFAUNode*>, std::allocator<std::pair<NFAUNode* const, bool> > >::_Rb_tree_impl<std::less<NFAUNode*>, false>::_Rb_tree_impl(std::allocator<std::_Rb_tree_node<std::pair<NFAUNode* const, bool> > > const&, std::less<NFAUNode*> const&)
	_ZNSt8_Rb_treeIP8NFAUNodeSt4pairIKS1_bESt10_Select1stIS4_ESt4lessIS1_ESaIS4_EE13_Rb_tree_implIS8_Lb0EEC1ERKSaISt13_Rb_tree_nodeIS4_EERKS8_ @ 1371
;	std::_Rb_tree<NFAUNode*, std::pair<NFAUNode* const, bool>, std::_Select1st<std::pair<NFAUNode* const, bool> >, std::less<NFAUNode*>, std::allocator<std::pair<NFAUNode* const, bool> > >::_Rb_tree_impl<std::less<NFAUNode*>, false>::~_Rb_tree_impl()
	_ZNSt8_Rb_treeIP8NFAUNodeSt4pairIKS1_bESt10_Select1stIS4_ESt4lessIS1_ESaIS4_EE13_Rb_tree_implIS8_Lb0EED1Ev @ 1372
;	std::_Rb_tree<NFAUNode*, std::pair<NFAUNode* const, bool>, std::_Select1st<std::pair<NFAUNode* const, bool> >, std::less<NFAUNode*>, std::allocator<std::pair<NFAUNode* const, bool> > >::insert_unique(std::pair<NFAUNode* const, bool> const&)
	_ZNSt8_Rb_treeIP8NFAUNodeSt4pairIKS1_bESt10_Select1stIS4_ESt4lessIS1_ESaIS4_EE13insert_uniqueERKS4_ @ 1373
;	std::_Rb_tree<NFAUNode*, std::pair<NFAUNode* const, bool>, std::_Select1st<std::pair<NFAUNode* const, bool> >, std::less<NFAUNode*>, std::allocator<std::pair<NFAUNode* const, bool> > >::insert_unique(std::_Rb_tree_iterator<std::pair<NFAUNode* const, bool> >, std::pair<NFAUNode* const, bool> const&)
	_ZNSt8_Rb_treeIP8NFAUNodeSt4pairIKS1_bESt10_Select1stIS4_ESt4lessIS1_ESaIS4_EE13insert_uniqueESt17_Rb_tree_iteratorIS4_ERKS4_ @ 1374
;	std::_Rb_tree<NFAUNode*, std::pair<NFAUNode* const, bool>, std::_Select1st<std::pair<NFAUNode* const, bool> >, std::less<NFAUNode*>, std::allocator<std::pair<NFAUNode* const, bool> > >::_M_create_node(std::pair<NFAUNode* const, bool> const&)
	_ZNSt8_Rb_treeIP8NFAUNodeSt4pairIKS1_bESt10_Select1stIS4_ESt4lessIS1_ESaIS4_EE14_M_create_nodeERKS4_ @ 1375
;	std::_Rb_tree<NFAUNode*, std::pair<NFAUNode* const, bool>, std::_Select1st<std::pair<NFAUNode* const, bool> >, std::less<NFAUNode*>, std::allocator<std::pair<NFAUNode* const, bool> > >::end()
	_ZNSt8_Rb_treeIP8NFAUNodeSt4pairIKS1_bESt10_Select1stIS4_ESt4lessIS1_ESaIS4_EE3endEv @ 1376
;	std::_Rb_tree<NFAUNode*, std::pair<NFAUNode* const, bool>, std::_Select1st<std::pair<NFAUNode* const, bool> >, std::less<NFAUNode*>, std::allocator<std::pair<NFAUNode* const, bool> > >::find(NFAUNode* const&)
	_ZNSt8_Rb_treeIP8NFAUNodeSt4pairIKS1_bESt10_Select1stIS4_ESt4lessIS1_ESaIS4_EE4findERS3_ @ 1377
;	std::_Rb_tree<NFAUNode*, std::pair<NFAUNode* const, bool>, std::_Select1st<std::pair<NFAUNode* const, bool> >, std::less<NFAUNode*>, std::allocator<std::pair<NFAUNode* const, bool> > >::begin()
	_ZNSt8_Rb_treeIP8NFAUNodeSt4pairIKS1_bESt10_Select1stIS4_ESt4lessIS1_ESaIS4_EE5beginEv @ 1378
;	std::_Rb_tree<NFAUNode*, std::pair<NFAUNode* const, bool>, std::_Select1st<std::pair<NFAUNode* const, bool> >, std::less<NFAUNode*>, std::allocator<std::pair<NFAUNode* const, bool> > >::_M_end()
	_ZNSt8_Rb_treeIP8NFAUNodeSt4pairIKS1_bESt10_Select1stIS4_ESt4lessIS1_ESaIS4_EE6_M_endEv @ 1379
;	std::_Rb_tree<NFAUNode*, std::pair<NFAUNode* const, bool>, std::_Select1st<std::pair<NFAUNode* const, bool> >, std::less<NFAUNode*>, std::allocator<std::pair<NFAUNode* const, bool> > >::_S_key(std::_Rb_tree_node<std::pair<NFAUNode* const, bool> > const*)
	_ZNSt8_Rb_treeIP8NFAUNodeSt4pairIKS1_bESt10_Select1stIS4_ESt4lessIS1_ESaIS4_EE6_S_keyEPKSt13_Rb_tree_nodeIS4_E @ 1380
;	std::_Rb_tree<NFAUNode*, std::pair<NFAUNode* const, bool>, std::_Select1st<std::pair<NFAUNode* const, bool> >, std::less<NFAUNode*>, std::allocator<std::pair<NFAUNode* const, bool> > >::_S_key(std::_Rb_tree_node_base const*)
	_ZNSt8_Rb_treeIP8NFAUNodeSt4pairIKS1_bESt10_Select1stIS4_ESt4lessIS1_ESaIS4_EE6_S_keyEPKSt18_Rb_tree_node_base @ 1381
;	std::_Rb_tree<NFAUNode*, std::pair<NFAUNode* const, bool>, std::_Select1st<std::pair<NFAUNode* const, bool> >, std::less<NFAUNode*>, std::allocator<std::pair<NFAUNode* const, bool> > >::_S_left(std::_Rb_tree_node_base*)
	_ZNSt8_Rb_treeIP8NFAUNodeSt4pairIKS1_bESt10_Select1stIS4_ESt4lessIS1_ESaIS4_EE7_S_leftEPSt18_Rb_tree_node_base @ 1382
;	std::_Rb_tree<NFAUNode*, std::pair<NFAUNode* const, bool>, std::_Select1st<std::pair<NFAUNode* const, bool> >, std::less<NFAUNode*>, std::allocator<std::pair<NFAUNode* const, bool> > >::_M_begin()
	_ZNSt8_Rb_treeIP8NFAUNodeSt4pairIKS1_bESt10_Select1stIS4_ESt4lessIS1_ESaIS4_EE8_M_beginEv @ 1383
;	std::_Rb_tree<NFAUNode*, std::pair<NFAUNode* const, bool>, std::_Select1st<std::pair<NFAUNode* const, bool> >, std::less<NFAUNode*>, std::allocator<std::pair<NFAUNode* const, bool> > >::_M_erase(std::_Rb_tree_node<std::pair<NFAUNode* const, bool> >*)
	_ZNSt8_Rb_treeIP8NFAUNodeSt4pairIKS1_bESt10_Select1stIS4_ESt4lessIS1_ESaIS4_EE8_M_eraseEPSt13_Rb_tree_nodeIS4_E @ 1384
;	std::_Rb_tree<NFAUNode*, std::pair<NFAUNode* const, bool>, std::_Select1st<std::pair<NFAUNode* const, bool> >, std::less<NFAUNode*>, std::allocator<std::pair<NFAUNode* const, bool> > >::_S_right(std::_Rb_tree_node_base*)
	_ZNSt8_Rb_treeIP8NFAUNodeSt4pairIKS1_bESt10_Select1stIS4_ESt4lessIS1_ESaIS4_EE8_S_rightEPSt18_Rb_tree_node_base @ 1385
;	std::_Rb_tree<NFAUNode*, std::pair<NFAUNode* const, bool>, std::_Select1st<std::pair<NFAUNode* const, bool> >, std::less<NFAUNode*>, std::allocator<std::pair<NFAUNode* const, bool> > >::_S_value(std::_Rb_tree_node<std::pair<NFAUNode* const, bool> > const*)
	_ZNSt8_Rb_treeIP8NFAUNodeSt4pairIKS1_bESt10_Select1stIS4_ESt4lessIS1_ESaIS4_EE8_S_valueEPKSt13_Rb_tree_nodeIS4_E @ 1386
;	std::_Rb_tree<NFAUNode*, std::pair<NFAUNode* const, bool>, std::_Select1st<std::pair<NFAUNode* const, bool> >, std::less<NFAUNode*>, std::allocator<std::pair<NFAUNode* const, bool> > >::_S_value(std::_Rb_tree_node_base const*)
	_ZNSt8_Rb_treeIP8NFAUNodeSt4pairIKS1_bESt10_Select1stIS4_ESt4lessIS1_ESaIS4_EE8_S_valueEPKSt18_Rb_tree_node_base @ 1387
;	std::_Rb_tree<NFAUNode*, std::pair<NFAUNode* const, bool>, std::_Select1st<std::pair<NFAUNode* const, bool> >, std::less<NFAUNode*>, std::allocator<std::pair<NFAUNode* const, bool> > >::_M_insert(std::_Rb_tree_node_base*, std::_Rb_tree_node_base*, std::pair<NFAUNode* const, bool> const&)
	_ZNSt8_Rb_treeIP8NFAUNodeSt4pairIKS1_bESt10_Select1stIS4_ESt4lessIS1_ESaIS4_EE9_M_insertEPSt18_Rb_tree_node_baseSC_RKS4_ @ 1388
;	std::_Rb_tree<NFAUNode*, std::pair<NFAUNode* const, bool>, std::_Select1st<std::pair<NFAUNode* const, bool> >, std::less<NFAUNode*>, std::allocator<std::pair<NFAUNode* const, bool> > >::_Rb_tree(std::less<NFAUNode*> const&, std::allocator<std::pair<NFAUNode* const, bool> > const&)
	_ZNSt8_Rb_treeIP8NFAUNodeSt4pairIKS1_bESt10_Select1stIS4_ESt4lessIS1_ESaIS4_EEC1ERKS8_RKS9_ @ 1389
;	std::_Rb_tree<NFAUNode*, std::pair<NFAUNode* const, bool>, std::_Select1st<std::pair<NFAUNode* const, bool> >, std::less<NFAUNode*>, std::allocator<std::pair<NFAUNode* const, bool> > >::~_Rb_tree()
	_ZNSt8_Rb_treeIP8NFAUNodeSt4pairIKS1_bESt10_Select1stIS4_ESt4lessIS1_ESaIS4_EED1Ev @ 1390
;	std::_Rb_tree<std::basic_string<wchar_t, std::char_traits<wchar_t>, std::allocator<wchar_t> >, std::pair<std::basic_string<wchar_t, std::char_traits<wchar_t>, std::allocator<wchar_t> > const, WCPattern*>, std::_Select1st<std::pair<std::basic_string<wchar_t, std::char_traits<wchar_t>, std::allocator<wchar_t> > const, WCPattern*> >, std::less<std::basic_string<wchar_t, std::char_traits<wchar_t>, std::allocator<wchar_t> > >, std::allocator<std::pair<std::basic_string<wchar_t, std::char_traits<wchar_t>, std::allocator<wchar_t> > const, WCPattern*> > >::_M_get_node()
	_ZNSt8_Rb_treeISbIwSt11char_traitsIwESaIwEESt4pairIKS3_P9WCPatternESt10_Select1stIS8_ESt4lessIS3_ESaIS8_EE11_M_get_nodeEv @ 1391
;	std::_Rb_tree<std::basic_string<wchar_t, std::char_traits<wchar_t>, std::allocator<wchar_t> >, std::pair<std::basic_string<wchar_t, std::char_traits<wchar_t>, std::allocator<wchar_t> > const, WCPattern*>, std::_Select1st<std::pair<std::basic_string<wchar_t, std::char_traits<wchar_t>, std::allocator<wchar_t> > const, WCPattern*> >, std::less<std::basic_string<wchar_t, std::char_traits<wchar_t>, std::allocator<wchar_t> > >, std::allocator<std::pair<std::basic_string<wchar_t, std::char_traits<wchar_t>, std::allocator<wchar_t> > const, WCPattern*> > >::_M_leftmost()
	_ZNSt8_Rb_treeISbIwSt11char_traitsIwESaIwEESt4pairIKS3_P9WCPatternESt10_Select1stIS8_ESt4lessIS3_ESaIS8_EE11_M_leftmostEv @ 1392
;	std::_Rb_tree<std::basic_string<wchar_t, std::char_traits<wchar_t>, std::allocator<wchar_t> >, std::pair<std::basic_string<wchar_t, std::char_traits<wchar_t>, std::allocator<wchar_t> > const, WCPattern*>, std::_Select1st<std::pair<std::basic_string<wchar_t, std::char_traits<wchar_t>, std::allocator<wchar_t> > const, WCPattern*> >, std::less<std::basic_string<wchar_t, std::char_traits<wchar_t>, std::allocator<wchar_t> > >, std::allocator<std::pair<std::basic_string<wchar_t, std::char_traits<wchar_t>, std::allocator<wchar_t> > const, WCPattern*> > >::_M_put_node(std::_Rb_tree_node<std::pair<std::basic_string<wchar_t, std::char_traits<wchar_t>, std::allocator<wchar_t> > const, WCPattern*> >*)
	_ZNSt8_Rb_treeISbIwSt11char_traitsIwESaIwEESt4pairIKS3_P9WCPatternESt10_Select1stIS8_ESt4lessIS3_ESaIS8_EE11_M_put_nodeEPSt13_Rb_tree_nodeIS8_E @ 1393
;	std::_Rb_tree<std::basic_string<wchar_t, std::char_traits<wchar_t>, std::allocator<wchar_t> >, std::pair<std::basic_string<wchar_t, std::char_traits<wchar_t>, std::allocator<wchar_t> > const, WCPattern*>, std::_Select1st<std::pair<std::basic_string<wchar_t, std::char_traits<wchar_t>, std::allocator<wchar_t> > const, WCPattern*> >, std::less<std::basic_string<wchar_t, std::char_traits<wchar_t>, std::allocator<wchar_t> > >, std::allocator<std::pair<std::basic_string<wchar_t, std::char_traits<wchar_t>, std::allocator<wchar_t> > const, WCPattern*> > >::lower_bound(std::basic_string<wchar_t, std::char_traits<wchar_t>, std::allocator<wchar_t> > const&)
	_ZNSt8_Rb_treeISbIwSt11char_traitsIwESaIwEESt4pairIKS3_P9WCPatternESt10_Select1stIS8_ESt4lessIS3_ESaIS8_EE11lower_boundERS5_ @ 1394
;	std::_Rb_tree<std::basic_string<wchar_t, std::char_traits<wchar_t>, std::allocator<wchar_t> >, std::pair<std::basic_string<wchar_t, std::char_traits<wchar_t>, std::allocator<wchar_t> > const, WCPattern*>, std::_Select1st<std::pair<std::basic_string<wchar_t, std::char_traits<wchar_t>, std::allocator<wchar_t> > const, WCPattern*> >, std::less<std::basic_string<wchar_t, std::char_traits<wchar_t>, std::allocator<wchar_t> > >, std::allocator<std::pair<std::basic_string<wchar_t, std::char_traits<wchar_t>, std::allocator<wchar_t> > const, WCPattern*> > >::_M_rightmost()
	_ZNSt8_Rb_treeISbIwSt11char_traitsIwESaIwEESt4pairIKS3_P9WCPatternESt10_Select1stIS8_ESt4lessIS3_ESaIS8_EE12_M_rightmostEv @ 1395
;	std::_Rb_tree<std::basic_string<wchar_t, std::char_traits<wchar_t>, std::allocator<wchar_t> >, std::pair<std::basic_string<wchar_t, std::char_traits<wchar_t>, std::allocator<wchar_t> > const, WCPattern*>, std::_Select1st<std::pair<std::basic_string<wchar_t, std::char_traits<wchar_t>, std::allocator<wchar_t> > const, WCPattern*> >, std::less<std::basic_string<wchar_t, std::char_traits<wchar_t>, std::allocator<wchar_t> > >, std::allocator<std::pair<std::basic_string<wchar_t, std::char_traits<wchar_t>, std::allocator<wchar_t> > const, WCPattern*> > >::destroy_node(std::_Rb_tree_node<std::pair<std::basic_string<wchar_t, std::char_traits<wchar_t>, std::allocator<wchar_t> > const, WCPattern*> >*)
	_ZNSt8_Rb_treeISbIwSt11char_traitsIwESaIwEESt4pairIKS3_P9WCPatternESt10_Select1stIS8_ESt4lessIS3_ESaIS8_EE12destroy_nodeEPSt13_Rb_tree_nodeIS8_E @ 1396
;	std::_Rb_tree<std::basic_string<wchar_t, std::char_traits<wchar_t>, std::allocator<wchar_t> >, std::pair<std::basic_string<wchar_t, std::char_traits<wchar_t>, std::allocator<wchar_t> > const, WCPattern*>, std::_Select1st<std::pair<std::basic_string<wchar_t, std::char_traits<wchar_t>, std::allocator<wchar_t> > const, WCPattern*> >, std::less<std::basic_string<wchar_t, std::char_traits<wchar_t>, std::allocator<wchar_t> > >, std::allocator<std::pair<std::basic_string<wchar_t, std::char_traits<wchar_t>, std::allocator<wchar_t> > const, WCPattern*> > >::_Rb_tree_impl<std::less<std::basic_string<wchar_t, std::char_traits<wchar_t>, std::allocator<wchar_t> > >, false>::_Rb_tree_impl(std::allocator<std::_Rb_tree_node<std::pair<std::basic_string<wchar_t, std::char_traits<wchar_t>, std::allocator<wchar_t> > const, WCPattern*> > > const&, std::less<std::basic_string<wchar_t, std::char_traits<wchar_t>, std::allocator<wchar_t> > > const&)
	_ZNSt8_Rb_treeISbIwSt11char_traitsIwESaIwEESt4pairIKS3_P9WCPatternESt10_Select1stIS8_ESt4lessIS3_ESaIS8_EE13_Rb_tree_implISC_Lb0EEC1ERKSaISt13_Rb_tree_nodeIS8_EERKSC_ @ 1397
;	std::_Rb_tree<std::basic_string<wchar_t, std::char_traits<wchar_t>, std::allocator<wchar_t> >, std::pair<std::basic_string<wchar_t, std::char_traits<wchar_t>, std::allocator<wchar_t> > const, WCPattern*>, std::_Select1st<std::pair<std::basic_string<wchar_t, std::char_traits<wchar_t>, std::allocator<wchar_t> > const, WCPattern*> >, std::less<std::basic_string<wchar_t, std::char_traits<wchar_t>, std::allocator<wchar_t> > >, std::allocator<std::pair<std::basic_string<wchar_t, std::char_traits<wchar_t>, std::allocator<wchar_t> > const, WCPattern*> > >::_Rb_tree_impl<std::less<std::basic_string<wchar_t, std::char_traits<wchar_t>, std::allocator<wchar_t> > >, false>::~_Rb_tree_impl()
	_ZNSt8_Rb_treeISbIwSt11char_traitsIwESaIwEESt4pairIKS3_P9WCPatternESt10_Select1stIS8_ESt4lessIS3_ESaIS8_EE13_Rb_tree_implISC_Lb0EED1Ev @ 1398
;	std::_Rb_tree<std::basic_string<wchar_t, std::char_traits<wchar_t>, std::allocator<wchar_t> >, std::pair<std::basic_string<wchar_t, std::char_traits<wchar_t>, std::allocator<wchar_t> > const, WCPattern*>, std::_Select1st<std::pair<std::basic_string<wchar_t, std::char_traits<wchar_t>, std::allocator<wchar_t> > const, WCPattern*> >, std::less<std::basic_string<wchar_t, std::char_traits<wchar_t>, std::allocator<wchar_t> > >, std::allocator<std::pair<std::basic_string<wchar_t, std::char_traits<wchar_t>, std::allocator<wchar_t> > const, WCPattern*> > >::insert_unique(std::pair<std::basic_string<wchar_t, std::char_traits<wchar_t>, std::allocator<wchar_t> > const, WCPattern*> const&)
	_ZNSt8_Rb_treeISbIwSt11char_traitsIwESaIwEESt4pairIKS3_P9WCPatternESt10_Select1stIS8_ESt4lessIS3_ESaIS8_EE13insert_uniqueERKS8_ @ 1399
;	std::_Rb_tree<std::basic_string<wchar_t, std::char_traits<wchar_t>, std::allocator<wchar_t> >, std::pair<std::basic_string<wchar_t, std::char_traits<wchar_t>, std::allocator<wchar_t> > const, WCPattern*>, std::_Select1st<std::pair<std::basic_string<wchar_t, std::char_traits<wchar_t>, std::allocator<wchar_t> > const, WCPattern*> >, std::less<std::basic_string<wchar_t, std::char_traits<wchar_t>, std::allocator<wchar_t> > >, std::allocator<std::pair<std::basic_string<wchar_t, std::char_traits<wchar_t>, std::allocator<wchar_t> > const, WCPattern*> > >::insert_unique(std::_Rb_tree_iterator<std::pair<std::basic_string<wchar_t, std::char_traits<wchar_t>, std::allocator<wchar_t> > const, WCPattern*> >, std::pair<std::basic_string<wchar_t, std::char_traits<wchar_t>, std::allocator<wchar_t> > const, WCPattern*> const&)
	_ZNSt8_Rb_treeISbIwSt11char_traitsIwESaIwEESt4pairIKS3_P9WCPatternESt10_Select1stIS8_ESt4lessIS3_ESaIS8_EE13insert_uniqueESt17_Rb_tree_iteratorIS8_ERKS8_ @ 1400
;	std::_Rb_tree<std::basic_string<wchar_t, std::char_traits<wchar_t>, std::allocator<wchar_t> >, std::pair<std::basic_string<wchar_t, std::char_traits<wchar_t>, std::allocator<wchar_t> > const, WCPattern*>, std::_Select1st<std::pair<std::basic_string<wchar_t, std::char_traits<wchar_t>, std::allocator<wchar_t> > const, WCPattern*> >, std::less<std::basic_string<wchar_t, std::char_traits<wchar_t>, std::allocator<wchar_t> > >, std::allocator<std::pair<std::basic_string<wchar_t, std::char_traits<wchar_t>, std::allocator<wchar_t> > const, WCPattern*> > >::_M_create_node(std::pair<std::basic_string<wchar_t, std::char_traits<wchar_t>, std::allocator<wchar_t> > const, WCPattern*> const&)
	_ZNSt8_Rb_treeISbIwSt11char_traitsIwESaIwEESt4pairIKS3_P9WCPatternESt10_Select1stIS8_ESt4lessIS3_ESaIS8_EE14_M_create_nodeERKS8_ @ 1401
;	std::_Rb_tree<std::basic_string<wchar_t, std::char_traits<wchar_t>, std::allocator<wchar_t> >, std::pair<std::basic_string<wchar_t, std::char_traits<wchar_t>, std::allocator<wchar_t> > const, WCPattern*>, std::_Select1st<std::pair<std::basic_string<wchar_t, std::char_traits<wchar_t>, std::allocator<wchar_t> > const, WCPattern*> >, std::less<std::basic_string<wchar_t, std::char_traits<wchar_t>, std::allocator<wchar_t> > >, std::allocator<std::pair<std::basic_string<wchar_t, std::char_traits<wchar_t>, std::allocator<wchar_t> > const, WCPattern*> > >::end()
	_ZNSt8_Rb_treeISbIwSt11char_traitsIwESaIwEESt4pairIKS3_P9WCPatternESt10_Select1stIS8_ESt4lessIS3_ESaIS8_EE3endEv @ 1402
;	std::_Rb_tree<std::basic_string<wchar_t, std::char_traits<wchar_t>, std::allocator<wchar_t> >, std::pair<std::basic_string<wchar_t, std::char_traits<wchar_t>, std::allocator<wchar_t> > const, WCPattern*>, std::_Select1st<std::pair<std::basic_string<wchar_t, std::char_traits<wchar_t>, std::allocator<wchar_t> > const, WCPattern*> >, std::less<std::basic_string<wchar_t, std::char_traits<wchar_t>, std::allocator<wchar_t> > >, std::allocator<std::pair<std::basic_string<wchar_t, std::char_traits<wchar_t>, std::allocator<wchar_t> > const, WCPattern*> > >::find(std::basic_string<wchar_t, std::char_traits<wchar_t>, std::allocator<wchar_t> > const&)
	_ZNSt8_Rb_treeISbIwSt11char_traitsIwESaIwEESt4pairIKS3_P9WCPatternESt10_Select1stIS8_ESt4lessIS3_ESaIS8_EE4findERS5_ @ 1403
;	std::_Rb_tree<std::basic_string<wchar_t, std::char_traits<wchar_t>, std::allocator<wchar_t> >, std::pair<std::basic_string<wchar_t, std::char_traits<wchar_t>, std::allocator<wchar_t> > const, WCPattern*>, std::_Select1st<std::pair<std::basic_string<wchar_t, std::char_traits<wchar_t>, std::allocator<wchar_t> > const, WCPattern*> >, std::less<std::basic_string<wchar_t, std::char_traits<wchar_t>, std::allocator<wchar_t> > >, std::allocator<std::pair<std::basic_string<wchar_t, std::char_traits<wchar_t>, std::allocator<wchar_t> > const, WCPattern*> > >::begin()
	_ZNSt8_Rb_treeISbIwSt11char_traitsIwESaIwEESt4pairIKS3_P9WCPatternESt10_Select1stIS8_ESt4lessIS3_ESaIS8_EE5beginEv @ 1404
;	std::_Rb_tree<std::basic_string<wchar_t, std::char_traits<wchar_t>, std::allocator<wchar_t> >, std::pair<std::basic_string<wchar_t, std::char_traits<wchar_t>, std::allocator<wchar_t> > const, WCPattern*>, std::_Select1st<std::pair<std::basic_string<wchar_t, std::char_traits<wchar_t>, std::allocator<wchar_t> > const, WCPattern*> >, std::less<std::basic_string<wchar_t, std::char_traits<wchar_t>, std::allocator<wchar_t> > >, std::allocator<std::pair<std::basic_string<wchar_t, std::char_traits<wchar_t>, std::allocator<wchar_t> > const, WCPattern*> > >::clear()
	_ZNSt8_Rb_treeISbIwSt11char_traitsIwESaIwEESt4pairIKS3_P9WCPatternESt10_Select1stIS8_ESt4lessIS3_ESaIS8_EE5clearEv @ 1405
;	std::_Rb_tree<std::basic_string<wchar_t, std::char_traits<wchar_t>, std::allocator<wchar_t> >, std::pair<std::basic_string<wchar_t, std::char_traits<wchar_t>, std::allocator<wchar_t> > const, WCPattern*>, std::_Select1st<std::pair<std::basic_string<wchar_t, std::char_traits<wchar_t>, std::allocator<wchar_t> > const, WCPattern*> >, std::less<std::basic_string<wchar_t, std::char_traits<wchar_t>, std::allocator<wchar_t> > >, std::allocator<std::pair<std::basic_string<wchar_t, std::char_traits<wchar_t>, std::allocator<wchar_t> > const, WCPattern*> > >::_M_end()
	_ZNSt8_Rb_treeISbIwSt11char_traitsIwESaIwEESt4pairIKS3_P9WCPatternESt10_Select1stIS8_ESt4lessIS3_ESaIS8_EE6_M_endEv @ 1406
;	std::_Rb_tree<std::basic_string<wchar_t, std::char_traits<wchar_t>, std::allocator<wchar_t> >, std::pair<std::basic_string<wchar_t, std::char_traits<wchar_t>, std::allocator<wchar_t> > const, WCPattern*>, std::_Select1st<std::pair<std::basic_string<wchar_t, std::char_traits<wchar_t>, std::allocator<wchar_t> > const, WCPattern*> >, std::less<std::basic_string<wchar_t, std::char_traits<wchar_t>, std::allocator<wchar_t> > >, std::allocator<std::pair<std::basic_string<wchar_t, std::char_traits<wchar_t>, std::allocator<wchar_t> > const, WCPattern*> > >::_S_key(std::_Rb_tree_node<std::pair<std::basic_string<wchar_t, std::char_traits<wchar_t>, std::allocator<wchar_t> > const, WCPattern*> > const*)
	_ZNSt8_Rb_treeISbIwSt11char_traitsIwESaIwEESt4pairIKS3_P9WCPatternESt10_Select1stIS8_ESt4lessIS3_ESaIS8_EE6_S_keyEPKSt13_Rb_tree_nodeIS8_E @ 1407
;	std::_Rb_tree<std::basic_string<wchar_t, std::char_traits<wchar_t>, std::allocator<wchar_t> >, std::pair<std::basic_string<wchar_t, std::char_traits<wchar_t>, std::allocator<wchar_t> > const, WCPattern*>, std::_Select1st<std::pair<std::basic_string<wchar_t, std::char_traits<wchar_t>, std::allocator<wchar_t> > const, WCPattern*> >, std::less<std::basic_string<wchar_t, std::char_traits<wchar_t>, std::allocator<wchar_t> > >, std::allocator<std::pair<std::basic_string<wchar_t, std::char_traits<wchar_t>, std::allocator<wchar_t> > const, WCPattern*> > >::_S_key(std::_Rb_tree_node_base const*)
	_ZNSt8_Rb_treeISbIwSt11char_traitsIwESaIwEESt4pairIKS3_P9WCPatternESt10_Select1stIS8_ESt4lessIS3_ESaIS8_EE6_S_keyEPKSt18_Rb_tree_node_base @ 1408
;	std::_Rb_tree<std::basic_string<wchar_t, std::char_traits<wchar_t>, std::allocator<wchar_t> >, std::pair<std::basic_string<wchar_t, std::char_traits<wchar_t>, std::allocator<wchar_t> > const, WCPattern*>, std::_Select1st<std::pair<std::basic_string<wchar_t, std::char_traits<wchar_t>, std::allocator<wchar_t> > const, WCPattern*> >, std::less<std::basic_string<wchar_t, std::char_traits<wchar_t>, std::allocator<wchar_t> > >, std::allocator<std::pair<std::basic_string<wchar_t, std::char_traits<wchar_t>, std::allocator<wchar_t> > const, WCPattern*> > >::_M_root()
	_ZNSt8_Rb_treeISbIwSt11char_traitsIwESaIwEESt4pairIKS3_P9WCPatternESt10_Select1stIS8_ESt4lessIS3_ESaIS8_EE7_M_rootEv @ 1409
;	std::_Rb_tree<std::basic_string<wchar_t, std::char_traits<wchar_t>, std::allocator<wchar_t> >, std::pair<std::basic_string<wchar_t, std::char_traits<wchar_t>, std::allocator<wchar_t> > const, WCPattern*>, std::_Select1st<std::pair<std::basic_string<wchar_t, std::char_traits<wchar_t>, std::allocator<wchar_t> > const, WCPattern*> >, std::less<std::basic_string<wchar_t, std::char_traits<wchar_t>, std::allocator<wchar_t> > >, std::allocator<std::pair<std::basic_string<wchar_t, std::char_traits<wchar_t>, std::allocator<wchar_t> > const, WCPattern*> > >::_S_left(std::_Rb_tree_node_base*)
	_ZNSt8_Rb_treeISbIwSt11char_traitsIwESaIwEESt4pairIKS3_P9WCPatternESt10_Select1stIS8_ESt4lessIS3_ESaIS8_EE7_S_leftEPSt18_Rb_tree_node_base @ 1410
;	std::_Rb_tree<std::basic_string<wchar_t, std::char_traits<wchar_t>, std::allocator<wchar_t> >, std::pair<std::basic_string<wchar_t, std::char_traits<wchar_t>, std::allocator<wchar_t> > const, WCPattern*>, std::_Select1st<std::pair<std::basic_string<wchar_t, std::char_traits<wchar_t>, std::allocator<wchar_t> > const, WCPattern*> >, std::less<std::basic_string<wchar_t, std::char_traits<wchar_t>, std::allocator<wchar_t> > >, std::allocator<std::pair<std::basic_string<wchar_t, std::char_traits<wchar_t>, std::allocator<wchar_t> > const, WCPattern*> > >::_M_begin()
	_ZNSt8_Rb_treeISbIwSt11char_traitsIwESaIwEESt4pairIKS3_P9WCPatternESt10_Select1stIS8_ESt4lessIS3_ESaIS8_EE8_M_beginEv @ 1411
;	std::_Rb_tree<std::basic_string<wchar_t, std::char_traits<wchar_t>, std::allocator<wchar_t> >, std::pair<std::basic_string<wchar_t, std::char_traits<wchar_t>, std::allocator<wchar_t> > const, WCPattern*>, std::_Select1st<std::pair<std::basic_string<wchar_t, std::char_traits<wchar_t>, std::allocator<wchar_t> > const, WCPattern*> >, std::less<std::basic_string<wchar_t, std::char_traits<wchar_t>, std::allocator<wchar_t> > >, std::allocator<std::pair<std::basic_string<wchar_t, std::char_traits<wchar_t>, std::allocator<wchar_t> > const, WCPattern*> > >::_M_erase(std::_Rb_tree_node<std::pair<std::basic_string<wchar_t, std::char_traits<wchar_t>, std::allocator<wchar_t> > const, WCPattern*> >*)
	_ZNSt8_Rb_treeISbIwSt11char_traitsIwESaIwEESt4pairIKS3_P9WCPatternESt10_Select1stIS8_ESt4lessIS3_ESaIS8_EE8_M_eraseEPSt13_Rb_tree_nodeIS8_E @ 1412
;	std::_Rb_tree<std::basic_string<wchar_t, std::char_traits<wchar_t>, std::allocator<wchar_t> >, std::pair<std::basic_string<wchar_t, std::char_traits<wchar_t>, std::allocator<wchar_t> > const, WCPattern*>, std::_Select1st<std::pair<std::basic_string<wchar_t, std::char_traits<wchar_t>, std::allocator<wchar_t> > const, WCPattern*> >, std::less<std::basic_string<wchar_t, std::char_traits<wchar_t>, std::allocator<wchar_t> > >, std::allocator<std::pair<std::basic_string<wchar_t, std::char_traits<wchar_t>, std::allocator<wchar_t> > const, WCPattern*> > >::_S_right(std::_Rb_tree_node_base*)
	_ZNSt8_Rb_treeISbIwSt11char_traitsIwESaIwEESt4pairIKS3_P9WCPatternESt10_Select1stIS8_ESt4lessIS3_ESaIS8_EE8_S_rightEPSt18_Rb_tree_node_base @ 1413
;	std::_Rb_tree<std::basic_string<wchar_t, std::char_traits<wchar_t>, std::allocator<wchar_t> >, std::pair<std::basic_string<wchar_t, std::char_traits<wchar_t>, std::allocator<wchar_t> > const, WCPattern*>, std::_Select1st<std::pair<std::basic_string<wchar_t, std::char_traits<wchar_t>, std::allocator<wchar_t> > const, WCPattern*> >, std::less<std::basic_string<wchar_t, std::char_traits<wchar_t>, std::allocator<wchar_t> > >, std::allocator<std::pair<std::basic_string<wchar_t, std::char_traits<wchar_t>, std::allocator<wchar_t> > const, WCPattern*> > >::_S_value(std::_Rb_tree_node<std::pair<std::basic_string<wchar_t, std::char_traits<wchar_t>, std::allocator<wchar_t> > const, WCPattern*> > const*)
	_ZNSt8_Rb_treeISbIwSt11char_traitsIwESaIwEESt4pairIKS3_P9WCPatternESt10_Select1stIS8_ESt4lessIS3_ESaIS8_EE8_S_valueEPKSt13_Rb_tree_nodeIS8_E @ 1414
;	std::_Rb_tree<std::basic_string<wchar_t, std::char_traits<wchar_t>, std::allocator<wchar_t> >, std::pair<std::basic_string<wchar_t, std::char_traits<wchar_t>, std::allocator<wchar_t> > const, WCPattern*>, std::_Select1st<std::pair<std::basic_string<wchar_t, std::char_traits<wchar_t>, std::allocator<wchar_t> > const, WCPattern*> >, std::less<std::basic_string<wchar_t, std::char_traits<wchar_t>, std::allocator<wchar_t> > >, std::allocator<std::pair<std::basic_string<wchar_t, std::char_traits<wchar_t>, std::allocator<wchar_t> > const, WCPattern*> > >::_S_value(std::_Rb_tree_node_base const*)
	_ZNSt8_Rb_treeISbIwSt11char_traitsIwESaIwEESt4pairIKS3_P9WCPatternESt10_Select1stIS8_ESt4lessIS3_ESaIS8_EE8_S_valueEPKSt18_Rb_tree_node_base @ 1415
;	std::_Rb_tree<std::basic_string<wchar_t, std::char_traits<wchar_t>, std::allocator<wchar_t> >, std::pair<std::basic_string<wchar_t, std::char_traits<wchar_t>, std::allocator<wchar_t> > const, WCPattern*>, std::_Select1st<std::pair<std::basic_string<wchar_t, std::char_traits<wchar_t>, std::allocator<wchar_t> > const, WCPattern*> >, std::less<std::basic_string<wchar_t, std::char_traits<wchar_t>, std::allocator<wchar_t> > >, std::allocator<std::pair<std::basic_string<wchar_t, std::char_traits<wchar_t>, std::allocator<wchar_t> > const, WCPattern*> > >::_M_insert(std::_Rb_tree_node_base*, std::_Rb_tree_node_base*, std::pair<std::basic_string<wchar_t, std::char_traits<wchar_t>, std::allocator<wchar_t> > const, WCPattern*> const&)
	_ZNSt8_Rb_treeISbIwSt11char_traitsIwESaIwEESt4pairIKS3_P9WCPatternESt10_Select1stIS8_ESt4lessIS3_ESaIS8_EE9_M_insertEPSt18_Rb_tree_node_baseSG_RKS8_ @ 1416
;	std::_Rb_tree<std::basic_string<wchar_t, std::char_traits<wchar_t>, std::allocator<wchar_t> >, std::pair<std::basic_string<wchar_t, std::char_traits<wchar_t>, std::allocator<wchar_t> > const, WCPattern*>, std::_Select1st<std::pair<std::basic_string<wchar_t, std::char_traits<wchar_t>, std::allocator<wchar_t> > const, WCPattern*> >, std::less<std::basic_string<wchar_t, std::char_traits<wchar_t>, std::allocator<wchar_t> > >, std::allocator<std::pair<std::basic_string<wchar_t, std::char_traits<wchar_t>, std::allocator<wchar_t> > const, WCPattern*> > >::_Rb_tree(std::less<std::basic_string<wchar_t, std::char_traits<wchar_t>, std::allocator<wchar_t> > > const&, std::allocator<std::pair<std::basic_string<wchar_t, std::char_traits<wchar_t>, std::allocator<wchar_t> > const, WCPattern*> > const&)
	_ZNSt8_Rb_treeISbIwSt11char_traitsIwESaIwEESt4pairIKS3_P9WCPatternESt10_Select1stIS8_ESt4lessIS3_ESaIS8_EEC1ERKSC_RKSD_ @ 1417
;	std::_Rb_tree<std::basic_string<wchar_t, std::char_traits<wchar_t>, std::allocator<wchar_t> >, std::pair<std::basic_string<wchar_t, std::char_traits<wchar_t>, std::allocator<wchar_t> > const, WCPattern*>, std::_Select1st<std::pair<std::basic_string<wchar_t, std::char_traits<wchar_t>, std::allocator<wchar_t> > const, WCPattern*> >, std::less<std::basic_string<wchar_t, std::char_traits<wchar_t>, std::allocator<wchar_t> > >, std::allocator<std::pair<std::basic_string<wchar_t, std::char_traits<wchar_t>, std::allocator<wchar_t> > const, WCPattern*> > >::~_Rb_tree()
	_ZNSt8_Rb_treeISbIwSt11char_traitsIwESaIwEESt4pairIKS3_P9WCPatternESt10_Select1stIS8_ESt4lessIS3_ESaIS8_EED1Ev @ 1418
;	std::_Rb_tree<std::basic_string<wchar_t, std::char_traits<wchar_t>, std::allocator<wchar_t> >, std::pair<std::basic_string<wchar_t, std::char_traits<wchar_t>, std::allocator<wchar_t> > const, std::pair<std::basic_string<wchar_t, std::char_traits<wchar_t>, std::allocator<wchar_t> >, unsigned long> >, std::_Select1st<std::pair<std::basic_string<wchar_t, std::char_traits<wchar_t>, std::allocator<wchar_t> > const, std::pair<std::basic_string<wchar_t, std::char_traits<wchar_t>, std::allocator<wchar_t> >, unsigned long> > >, std::less<std::basic_string<wchar_t, std::char_traits<wchar_t>, std::allocator<wchar_t> > >, std::allocator<std::pair<std::basic_string<wchar_t, std::char_traits<wchar_t>, std::allocator<wchar_t> > const, std::pair<std::basic_string<wchar_t, std::char_traits<wchar_t>, std::allocator<wchar_t> >, unsigned long> > > >::_M_get_node()
	_ZNSt8_Rb_treeISbIwSt11char_traitsIwESaIwEESt4pairIKS3_S4_IS3_mEESt10_Select1stIS7_ESt4lessIS3_ESaIS7_EE11_M_get_nodeEv @ 1419
;	std::_Rb_tree<std::basic_string<wchar_t, std::char_traits<wchar_t>, std::allocator<wchar_t> >, std::pair<std::basic_string<wchar_t, std::char_traits<wchar_t>, std::allocator<wchar_t> > const, std::pair<std::basic_string<wchar_t, std::char_traits<wchar_t>, std::allocator<wchar_t> >, unsigned long> >, std::_Select1st<std::pair<std::basic_string<wchar_t, std::char_traits<wchar_t>, std::allocator<wchar_t> > const, std::pair<std::basic_string<wchar_t, std::char_traits<wchar_t>, std::allocator<wchar_t> >, unsigned long> > >, std::less<std::basic_string<wchar_t, std::char_traits<wchar_t>, std::allocator<wchar_t> > >, std::allocator<std::pair<std::basic_string<wchar_t, std::char_traits<wchar_t>, std::allocator<wchar_t> > const, std::pair<std::basic_string<wchar_t, std::char_traits<wchar_t>, std::allocator<wchar_t> >, unsigned long> > > >::_M_leftmost()
	_ZNSt8_Rb_treeISbIwSt11char_traitsIwESaIwEESt4pairIKS3_S4_IS3_mEESt10_Select1stIS7_ESt4lessIS3_ESaIS7_EE11_M_leftmostEv @ 1420
;	std::_Rb_tree<std::basic_string<wchar_t, std::char_traits<wchar_t>, std::allocator<wchar_t> >, std::pair<std::basic_string<wchar_t, std::char_traits<wchar_t>, std::allocator<wchar_t> > const, std::pair<std::basic_string<wchar_t, std::char_traits<wchar_t>, std::allocator<wchar_t> >, unsigned long> >, std::_Select1st<std::pair<std::basic_string<wchar_t, std::char_traits<wchar_t>, std::allocator<wchar_t> > const, std::pair<std::basic_string<wchar_t, std::char_traits<wchar_t>, std::allocator<wchar_t> >, unsigned long> > >, std::less<std::basic_string<wchar_t, std::char_traits<wchar_t>, std::allocator<wchar_t> > >, std::allocator<std::pair<std::basic_string<wchar_t, std::char_traits<wchar_t>, std::allocator<wchar_t> > const, std::pair<std::basic_string<wchar_t, std::char_traits<wchar_t>, std::allocator<wchar_t> >, unsigned long> > > >::_M_put_node(std::_Rb_tree_node<std::pair<std::basic_string<wchar_t, std::char_traits<wchar_t>, std::allocator<wchar_t> > const, std::pair<std::basic_string<wchar_t, std::char_traits<wchar_t>, std::allocator<wchar_t> >, unsigned long> > >*)
	_ZNSt8_Rb_treeISbIwSt11char_traitsIwESaIwEESt4pairIKS3_S4_IS3_mEESt10_Select1stIS7_ESt4lessIS3_ESaIS7_EE11_M_put_nodeEPSt13_Rb_tree_nodeIS7_E @ 1421
;	std::_Rb_tree<std::basic_string<wchar_t, std::char_traits<wchar_t>, std::allocator<wchar_t> >, std::pair<std::basic_string<wchar_t, std::char_traits<wchar_t>, std::allocator<wchar_t> > const, std::pair<std::basic_string<wchar_t, std::char_traits<wchar_t>, std::allocator<wchar_t> >, unsigned long> >, std::_Select1st<std::pair<std::basic_string<wchar_t, std::char_traits<wchar_t>, std::allocator<wchar_t> > const, std::pair<std::basic_string<wchar_t, std::char_traits<wchar_t>, std::allocator<wchar_t> >, unsigned long> > >, std::less<std::basic_string<wchar_t, std::char_traits<wchar_t>, std::allocator<wchar_t> > >, std::allocator<std::pair<std::basic_string<wchar_t, std::char_traits<wchar_t>, std::allocator<wchar_t> > const, std::pair<std::basic_string<wchar_t, std::char_traits<wchar_t>, std::allocator<wchar_t> >, unsigned long> > > >::lower_bound(std::basic_string<wchar_t, std::char_traits<wchar_t>, std::allocator<wchar_t> > const&)
	_ZNSt8_Rb_treeISbIwSt11char_traitsIwESaIwEESt4pairIKS3_S4_IS3_mEESt10_Select1stIS7_ESt4lessIS3_ESaIS7_EE11lower_boundERS5_ @ 1422
;	std::_Rb_tree<std::basic_string<wchar_t, std::char_traits<wchar_t>, std::allocator<wchar_t> >, std::pair<std::basic_string<wchar_t, std::char_traits<wchar_t>, std::allocator<wchar_t> > const, std::pair<std::basic_string<wchar_t, std::char_traits<wchar_t>, std::allocator<wchar_t> >, unsigned long> >, std::_Select1st<std::pair<std::basic_string<wchar_t, std::char_traits<wchar_t>, std::allocator<wchar_t> > const, std::pair<std::basic_string<wchar_t, std::char_traits<wchar_t>, std::allocator<wchar_t> >, unsigned long> > >, std::less<std::basic_string<wchar_t, std::char_traits<wchar_t>, std::allocator<wchar_t> > >, std::allocator<std::pair<std::basic_string<wchar_t, std::char_traits<wchar_t>, std::allocator<wchar_t> > const, std::pair<std::basic_string<wchar_t, std::char_traits<wchar_t>, std::allocator<wchar_t> >, unsigned long> > > >::_M_rightmost()
	_ZNSt8_Rb_treeISbIwSt11char_traitsIwESaIwEESt4pairIKS3_S4_IS3_mEESt10_Select1stIS7_ESt4lessIS3_ESaIS7_EE12_M_rightmostEv @ 1423
;	std::_Rb_tree<std::basic_string<wchar_t, std::char_traits<wchar_t>, std::allocator<wchar_t> >, std::pair<std::basic_string<wchar_t, std::char_traits<wchar_t>, std::allocator<wchar_t> > const, std::pair<std::basic_string<wchar_t, std::char_traits<wchar_t>, std::allocator<wchar_t> >, unsigned long> >, std::_Select1st<std::pair<std::basic_string<wchar_t, std::char_traits<wchar_t>, std::allocator<wchar_t> > const, std::pair<std::basic_string<wchar_t, std::char_traits<wchar_t>, std::allocator<wchar_t> >, unsigned long> > >, std::less<std::basic_string<wchar_t, std::char_traits<wchar_t>, std::allocator<wchar_t> > >, std::allocator<std::pair<std::basic_string<wchar_t, std::char_traits<wchar_t>, std::allocator<wchar_t> > const, std::pair<std::basic_string<wchar_t, std::char_traits<wchar_t>, std::allocator<wchar_t> >, unsigned long> > > >::destroy_node(std::_Rb_tree_node<std::pair<std::basic_string<wchar_t, std::char_traits<wchar_t>, std::allocator<wchar_t> > const, std::pair<std::basic_string<wchar_t, std::char_traits<wchar_t>, std::allocator<wchar_t> >, unsigned long> > >*)
	_ZNSt8_Rb_treeISbIwSt11char_traitsIwESaIwEESt4pairIKS3_S4_IS3_mEESt10_Select1stIS7_ESt4lessIS3_ESaIS7_EE12destroy_nodeEPSt13_Rb_tree_nodeIS7_E @ 1424
;	std::_Rb_tree<std::basic_string<wchar_t, std::char_traits<wchar_t>, std::allocator<wchar_t> >, std::pair<std::basic_string<wchar_t, std::char_traits<wchar_t>, std::allocator<wchar_t> > const, std::pair<std::basic_string<wchar_t, std::char_traits<wchar_t>, std::allocator<wchar_t> >, unsigned long> >, std::_Select1st<std::pair<std::basic_string<wchar_t, std::char_traits<wchar_t>, std::allocator<wchar_t> > const, std::pair<std::basic_string<wchar_t, std::char_traits<wchar_t>, std::allocator<wchar_t> >, unsigned long> > >, std::less<std::basic_string<wchar_t, std::char_traits<wchar_t>, std::allocator<wchar_t> > >, std::allocator<std::pair<std::basic_string<wchar_t, std::char_traits<wchar_t>, std::allocator<wchar_t> > const, std::pair<std::basic_string<wchar_t, std::char_traits<wchar_t>, std::allocator<wchar_t> >, unsigned long> > > >::_Rb_tree_impl<std::less<std::basic_string<wchar_t, std::char_traits<wchar_t>, std::allocator<wchar_t> > >, false>::_Rb_tree_impl(std::allocator<std::_Rb_tree_node<std::pair<std::basic_string<wchar_t, std::char_traits<wchar_t>, std::allocator<wchar_t> > const, std::pair<std::basic_string<wchar_t, std::char_traits<wchar_t>, std::allocator<wchar_t> >, unsigned long> > > > const&, std::less<std::basic_string<wchar_t, std::char_traits<wchar_t>, std::allocator<wchar_t> > > const&)
	_ZNSt8_Rb_treeISbIwSt11char_traitsIwESaIwEESt4pairIKS3_S4_IS3_mEESt10_Select1stIS7_ESt4lessIS3_ESaIS7_EE13_Rb_tree_implISB_Lb0EEC1ERKSaISt13_Rb_tree_nodeIS7_EERKSB_ @ 1425
;	std::_Rb_tree<std::basic_string<wchar_t, std::char_traits<wchar_t>, std::allocator<wchar_t> >, std::pair<std::basic_string<wchar_t, std::char_traits<wchar_t>, std::allocator<wchar_t> > const, std::pair<std::basic_string<wchar_t, std::char_traits<wchar_t>, std::allocator<wchar_t> >, unsigned long> >, std::_Select1st<std::pair<std::basic_string<wchar_t, std::char_traits<wchar_t>, std::allocator<wchar_t> > const, std::pair<std::basic_string<wchar_t, std::char_traits<wchar_t>, std::allocator<wchar_t> >, unsigned long> > >, std::less<std::basic_string<wchar_t, std::char_traits<wchar_t>, std::allocator<wchar_t> > >, std::allocator<std::pair<std::basic_string<wchar_t, std::char_traits<wchar_t>, std::allocator<wchar_t> > const, std::pair<std::basic_string<wchar_t, std::char_traits<wchar_t>, std::allocator<wchar_t> >, unsigned long> > > >::_Rb_tree_impl<std::less<std::basic_string<wchar_t, std::char_traits<wchar_t>, std::allocator<wchar_t> > >, false>::~_Rb_tree_impl()
	_ZNSt8_Rb_treeISbIwSt11char_traitsIwESaIwEESt4pairIKS3_S4_IS3_mEESt10_Select1stIS7_ESt4lessIS3_ESaIS7_EE13_Rb_tree_implISB_Lb0EED1Ev @ 1426
;	std::_Rb_tree<std::basic_string<wchar_t, std::char_traits<wchar_t>, std::allocator<wchar_t> >, std::pair<std::basic_string<wchar_t, std::char_traits<wchar_t>, std::allocator<wchar_t> > const, std::pair<std::basic_string<wchar_t, std::char_traits<wchar_t>, std::allocator<wchar_t> >, unsigned long> >, std::_Select1st<std::pair<std::basic_string<wchar_t, std::char_traits<wchar_t>, std::allocator<wchar_t> > const, std::pair<std::basic_string<wchar_t, std::char_traits<wchar_t>, std::allocator<wchar_t> >, unsigned long> > >, std::less<std::basic_string<wchar_t, std::char_traits<wchar_t>, std::allocator<wchar_t> > >, std::allocator<std::pair<std::basic_string<wchar_t, std::char_traits<wchar_t>, std::allocator<wchar_t> > const, std::pair<std::basic_string<wchar_t, std::char_traits<wchar_t>, std::allocator<wchar_t> >, unsigned long> > > >::insert_unique(std::pair<std::basic_string<wchar_t, std::char_traits<wchar_t>, std::allocator<wchar_t> > const, std::pair<std::basic_string<wchar_t, std::char_traits<wchar_t>, std::allocator<wchar_t> >, unsigned long> > const&)
	_ZNSt8_Rb_treeISbIwSt11char_traitsIwESaIwEESt4pairIKS3_S4_IS3_mEESt10_Select1stIS7_ESt4lessIS3_ESaIS7_EE13insert_uniqueERKS7_ @ 1427
;	std::_Rb_tree<std::basic_string<wchar_t, std::char_traits<wchar_t>, std::allocator<wchar_t> >, std::pair<std::basic_string<wchar_t, std::char_traits<wchar_t>, std::allocator<wchar_t> > const, std::pair<std::basic_string<wchar_t, std::char_traits<wchar_t>, std::allocator<wchar_t> >, unsigned long> >, std::_Select1st<std::pair<std::basic_string<wchar_t, std::char_traits<wchar_t>, std::allocator<wchar_t> > const, std::pair<std::basic_string<wchar_t, std::char_traits<wchar_t>, std::allocator<wchar_t> >, unsigned long> > >, std::less<std::basic_string<wchar_t, std::char_traits<wchar_t>, std::allocator<wchar_t> > >, std::allocator<std::pair<std::basic_string<wchar_t, std::char_traits<wchar_t>, std::allocator<wchar_t> > const, std::pair<std::basic_string<wchar_t, std::char_traits<wchar_t>, std::allocator<wchar_t> >, unsigned long> > > >::insert_unique(std::_Rb_tree_iterator<std::pair<std::basic_string<wchar_t, std::char_traits<wchar_t>, std::allocator<wchar_t> > const, std::pair<std::basic_string<wchar_t, std::char_traits<wchar_t>, std::allocator<wchar_t> >, unsigned long> > >, std::pair<std::basic_string<wchar_t, std::char_traits<wchar_t>, std::allocator<wchar_t> > const, std::pair<std::basic_string<wchar_t, std::char_traits<wchar_t>, std::allocator<wchar_t> >, unsigned long> > const&)
	_ZNSt8_Rb_treeISbIwSt11char_traitsIwESaIwEESt4pairIKS3_S4_IS3_mEESt10_Select1stIS7_ESt4lessIS3_ESaIS7_EE13insert_uniqueESt17_Rb_tree_iteratorIS7_ERKS7_ @ 1428
;	std::_Rb_tree<std::basic_string<wchar_t, std::char_traits<wchar_t>, std::allocator<wchar_t> >, std::pair<std::basic_string<wchar_t, std::char_traits<wchar_t>, std::allocator<wchar_t> > const, std::pair<std::basic_string<wchar_t, std::char_traits<wchar_t>, std::allocator<wchar_t> >, unsigned long> >, std::_Select1st<std::pair<std::basic_string<wchar_t, std::char_traits<wchar_t>, std::allocator<wchar_t> > const, std::pair<std::basic_string<wchar_t, std::char_traits<wchar_t>, std::allocator<wchar_t> >, unsigned long> > >, std::less<std::basic_string<wchar_t, std::char_traits<wchar_t>, std::allocator<wchar_t> > >, std::allocator<std::pair<std::basic_string<wchar_t, std::char_traits<wchar_t>, std::allocator<wchar_t> > const, std::pair<std::basic_string<wchar_t, std::char_traits<wchar_t>, std::allocator<wchar_t> >, unsigned long> > > >::_M_create_node(std::pair<std::basic_string<wchar_t, std::char_traits<wchar_t>, std::allocator<wchar_t> > const, std::pair<std::basic_string<wchar_t, std::char_traits<wchar_t>, std::allocator<wchar_t> >, unsigned long> > const&)
	_ZNSt8_Rb_treeISbIwSt11char_traitsIwESaIwEESt4pairIKS3_S4_IS3_mEESt10_Select1stIS7_ESt4lessIS3_ESaIS7_EE14_M_create_nodeERKS7_ @ 1429
;	std::_Rb_tree<std::basic_string<wchar_t, std::char_traits<wchar_t>, std::allocator<wchar_t> >, std::pair<std::basic_string<wchar_t, std::char_traits<wchar_t>, std::allocator<wchar_t> > const, std::pair<std::basic_string<wchar_t, std::char_traits<wchar_t>, std::allocator<wchar_t> >, unsigned long> >, std::_Select1st<std::pair<std::basic_string<wchar_t, std::char_traits<wchar_t>, std::allocator<wchar_t> > const, std::pair<std::basic_string<wchar_t, std::char_traits<wchar_t>, std::allocator<wchar_t> >, unsigned long> > >, std::less<std::basic_string<wchar_t, std::char_traits<wchar_t>, std::allocator<wchar_t> > >, std::allocator<std::pair<std::basic_string<wchar_t, std::char_traits<wchar_t>, std::allocator<wchar_t> > const, std::pair<std::basic_string<wchar_t, std::char_traits<wchar_t>, std::allocator<wchar_t> >, unsigned long> > > >::end()
	_ZNSt8_Rb_treeISbIwSt11char_traitsIwESaIwEESt4pairIKS3_S4_IS3_mEESt10_Select1stIS7_ESt4lessIS3_ESaIS7_EE3endEv @ 1430
;	std::_Rb_tree<std::basic_string<wchar_t, std::char_traits<wchar_t>, std::allocator<wchar_t> >, std::pair<std::basic_string<wchar_t, std::char_traits<wchar_t>, std::allocator<wchar_t> > const, std::pair<std::basic_string<wchar_t, std::char_traits<wchar_t>, std::allocator<wchar_t> >, unsigned long> >, std::_Select1st<std::pair<std::basic_string<wchar_t, std::char_traits<wchar_t>, std::allocator<wchar_t> > const, std::pair<std::basic_string<wchar_t, std::char_traits<wchar_t>, std::allocator<wchar_t> >, unsigned long> > >, std::less<std::basic_string<wchar_t, std::char_traits<wchar_t>, std::allocator<wchar_t> > >, std::allocator<std::pair<std::basic_string<wchar_t, std::char_traits<wchar_t>, std::allocator<wchar_t> > const, std::pair<std::basic_string<wchar_t, std::char_traits<wchar_t>, std::allocator<wchar_t> >, unsigned long> > > >::find(std::basic_string<wchar_t, std::char_traits<wchar_t>, std::allocator<wchar_t> > const&)
	_ZNSt8_Rb_treeISbIwSt11char_traitsIwESaIwEESt4pairIKS3_S4_IS3_mEESt10_Select1stIS7_ESt4lessIS3_ESaIS7_EE4findERS5_ @ 1431
;	std::_Rb_tree<std::basic_string<wchar_t, std::char_traits<wchar_t>, std::allocator<wchar_t> >, std::pair<std::basic_string<wchar_t, std::char_traits<wchar_t>, std::allocator<wchar_t> > const, std::pair<std::basic_string<wchar_t, std::char_traits<wchar_t>, std::allocator<wchar_t> >, unsigned long> >, std::_Select1st<std::pair<std::basic_string<wchar_t, std::char_traits<wchar_t>, std::allocator<wchar_t> > const, std::pair<std::basic_string<wchar_t, std::char_traits<wchar_t>, std::allocator<wchar_t> >, unsigned long> > >, std::less<std::basic_string<wchar_t, std::char_traits<wchar_t>, std::allocator<wchar_t> > >, std::allocator<std::pair<std::basic_string<wchar_t, std::char_traits<wchar_t>, std::allocator<wchar_t> > const, std::pair<std::basic_string<wchar_t, std::char_traits<wchar_t>, std::allocator<wchar_t> >, unsigned long> > > >::begin()
	_ZNSt8_Rb_treeISbIwSt11char_traitsIwESaIwEESt4pairIKS3_S4_IS3_mEESt10_Select1stIS7_ESt4lessIS3_ESaIS7_EE5beginEv @ 1432
;	std::_Rb_tree<std::basic_string<wchar_t, std::char_traits<wchar_t>, std::allocator<wchar_t> >, std::pair<std::basic_string<wchar_t, std::char_traits<wchar_t>, std::allocator<wchar_t> > const, std::pair<std::basic_string<wchar_t, std::char_traits<wchar_t>, std::allocator<wchar_t> >, unsigned long> >, std::_Select1st<std::pair<std::basic_string<wchar_t, std::char_traits<wchar_t>, std::allocator<wchar_t> > const, std::pair<std::basic_string<wchar_t, std::char_traits<wchar_t>, std::allocator<wchar_t> >, unsigned long> > >, std::less<std::basic_string<wchar_t, std::char_traits<wchar_t>, std::allocator<wchar_t> > >, std::allocator<std::pair<std::basic_string<wchar_t, std::char_traits<wchar_t>, std::allocator<wchar_t> > const, std::pair<std::basic_string<wchar_t, std::char_traits<wchar_t>, std::allocator<wchar_t> >, unsigned long> > > >::clear()
	_ZNSt8_Rb_treeISbIwSt11char_traitsIwESaIwEESt4pairIKS3_S4_IS3_mEESt10_Select1stIS7_ESt4lessIS3_ESaIS7_EE5clearEv @ 1433
;	std::_Rb_tree<std::basic_string<wchar_t, std::char_traits<wchar_t>, std::allocator<wchar_t> >, std::pair<std::basic_string<wchar_t, std::char_traits<wchar_t>, std::allocator<wchar_t> > const, std::pair<std::basic_string<wchar_t, std::char_traits<wchar_t>, std::allocator<wchar_t> >, unsigned long> >, std::_Select1st<std::pair<std::basic_string<wchar_t, std::char_traits<wchar_t>, std::allocator<wchar_t> > const, std::pair<std::basic_string<wchar_t, std::char_traits<wchar_t>, std::allocator<wchar_t> >, unsigned long> > >, std::less<std::basic_string<wchar_t, std::char_traits<wchar_t>, std::allocator<wchar_t> > >, std::allocator<std::pair<std::basic_string<wchar_t, std::char_traits<wchar_t>, std::allocator<wchar_t> > const, std::pair<std::basic_string<wchar_t, std::char_traits<wchar_t>, std::allocator<wchar_t> >, unsigned long> > > >::_M_end()
	_ZNSt8_Rb_treeISbIwSt11char_traitsIwESaIwEESt4pairIKS3_S4_IS3_mEESt10_Select1stIS7_ESt4lessIS3_ESaIS7_EE6_M_endEv @ 1434
;	std::_Rb_tree<std::basic_string<wchar_t, std::char_traits<wchar_t>, std::allocator<wchar_t> >, std::pair<std::basic_string<wchar_t, std::char_traits<wchar_t>, std::allocator<wchar_t> > const, std::pair<std::basic_string<wchar_t, std::char_traits<wchar_t>, std::allocator<wchar_t> >, unsigned long> >, std::_Select1st<std::pair<std::basic_string<wchar_t, std::char_traits<wchar_t>, std::allocator<wchar_t> > const, std::pair<std::basic_string<wchar_t, std::char_traits<wchar_t>, std::allocator<wchar_t> >, unsigned long> > >, std::less<std::basic_string<wchar_t, std::char_traits<wchar_t>, std::allocator<wchar_t> > >, std::allocator<std::pair<std::basic_string<wchar_t, std::char_traits<wchar_t>, std::allocator<wchar_t> > const, std::pair<std::basic_string<wchar_t, std::char_traits<wchar_t>, std::allocator<wchar_t> >, unsigned long> > > >::_S_key(std::_Rb_tree_node<std::pair<std::basic_string<wchar_t, std::char_traits<wchar_t>, std::allocator<wchar_t> > const, std::pair<std::basic_string<wchar_t, std::char_traits<wchar_t>, std::allocator<wchar_t> >, unsigned long> > > const*)
	_ZNSt8_Rb_treeISbIwSt11char_traitsIwESaIwEESt4pairIKS3_S4_IS3_mEESt10_Select1stIS7_ESt4lessIS3_ESaIS7_EE6_S_keyEPKSt13_Rb_tree_nodeIS7_E @ 1435
;	std::_Rb_tree<std::basic_string<wchar_t, std::char_traits<wchar_t>, std::allocator<wchar_t> >, std::pair<std::basic_string<wchar_t, std::char_traits<wchar_t>, std::allocator<wchar_t> > const, std::pair<std::basic_string<wchar_t, std::char_traits<wchar_t>, std::allocator<wchar_t> >, unsigned long> >, std::_Select1st<std::pair<std::basic_string<wchar_t, std::char_traits<wchar_t>, std::allocator<wchar_t> > const, std::pair<std::basic_string<wchar_t, std::char_traits<wchar_t>, std::allocator<wchar_t> >, unsigned long> > >, std::less<std::basic_string<wchar_t, std::char_traits<wchar_t>, std::allocator<wchar_t> > >, std::allocator<std::pair<std::basic_string<wchar_t, std::char_traits<wchar_t>, std::allocator<wchar_t> > const, std::pair<std::basic_string<wchar_t, std::char_traits<wchar_t>, std::allocator<wchar_t> >, unsigned long> > > >::_S_key(std::_Rb_tree_node_base const*)
	_ZNSt8_Rb_treeISbIwSt11char_traitsIwESaIwEESt4pairIKS3_S4_IS3_mEESt10_Select1stIS7_ESt4lessIS3_ESaIS7_EE6_S_keyEPKSt18_Rb_tree_node_base @ 1436
;	std::_Rb_tree<std::basic_string<wchar_t, std::char_traits<wchar_t>, std::allocator<wchar_t> >, std::pair<std::basic_string<wchar_t, std::char_traits<wchar_t>, std::allocator<wchar_t> > const, std::pair<std::basic_string<wchar_t, std::char_traits<wchar_t>, std::allocator<wchar_t> >, unsigned long> >, std::_Select1st<std::pair<std::basic_string<wchar_t, std::char_traits<wchar_t>, std::allocator<wchar_t> > const, std::pair<std::basic_string<wchar_t, std::char_traits<wchar_t>, std::allocator<wchar_t> >, unsigned long> > >, std::less<std::basic_string<wchar_t, std::char_traits<wchar_t>, std::allocator<wchar_t> > >, std::allocator<std::pair<std::basic_string<wchar_t, std::char_traits<wchar_t>, std::allocator<wchar_t> > const, std::pair<std::basic_string<wchar_t, std::char_traits<wchar_t>, std::allocator<wchar_t> >, unsigned long> > > >::_M_root()
	_ZNSt8_Rb_treeISbIwSt11char_traitsIwESaIwEESt4pairIKS3_S4_IS3_mEESt10_Select1stIS7_ESt4lessIS3_ESaIS7_EE7_M_rootEv @ 1437
;	std::_Rb_tree<std::basic_string<wchar_t, std::char_traits<wchar_t>, std::allocator<wchar_t> >, std::pair<std::basic_string<wchar_t, std::char_traits<wchar_t>, std::allocator<wchar_t> > const, std::pair<std::basic_string<wchar_t, std::char_traits<wchar_t>, std::allocator<wchar_t> >, unsigned long> >, std::_Select1st<std::pair<std::basic_string<wchar_t, std::char_traits<wchar_t>, std::allocator<wchar_t> > const, std::pair<std::basic_string<wchar_t, std::char_traits<wchar_t>, std::allocator<wchar_t> >, unsigned long> > >, std::less<std::basic_string<wchar_t, std::char_traits<wchar_t>, std::allocator<wchar_t> > >, std::allocator<std::pair<std::basic_string<wchar_t, std::char_traits<wchar_t>, std::allocator<wchar_t> > const, std::pair<std::basic_string<wchar_t, std::char_traits<wchar_t>, std::allocator<wchar_t> >, unsigned long> > > >::_S_left(std::_Rb_tree_node_base*)
	_ZNSt8_Rb_treeISbIwSt11char_traitsIwESaIwEESt4pairIKS3_S4_IS3_mEESt10_Select1stIS7_ESt4lessIS3_ESaIS7_EE7_S_leftEPSt18_Rb_tree_node_base @ 1438
;	std::_Rb_tree<std::basic_string<wchar_t, std::char_traits<wchar_t>, std::allocator<wchar_t> >, std::pair<std::basic_string<wchar_t, std::char_traits<wchar_t>, std::allocator<wchar_t> > const, std::pair<std::basic_string<wchar_t, std::char_traits<wchar_t>, std::allocator<wchar_t> >, unsigned long> >, std::_Select1st<std::pair<std::basic_string<wchar_t, std::char_traits<wchar_t>, std::allocator<wchar_t> > const, std::pair<std::basic_string<wchar_t, std::char_traits<wchar_t>, std::allocator<wchar_t> >, unsigned long> > >, std::less<std::basic_string<wchar_t, std::char_traits<wchar_t>, std::allocator<wchar_t> > >, std::allocator<std::pair<std::basic_string<wchar_t, std::char_traits<wchar_t>, std::allocator<wchar_t> > const, std::pair<std::basic_string<wchar_t, std::char_traits<wchar_t>, std::allocator<wchar_t> >, unsigned long> > > >::_M_begin()
	_ZNSt8_Rb_treeISbIwSt11char_traitsIwESaIwEESt4pairIKS3_S4_IS3_mEESt10_Select1stIS7_ESt4lessIS3_ESaIS7_EE8_M_beginEv @ 1439
;	std::_Rb_tree<std::basic_string<wchar_t, std::char_traits<wchar_t>, std::allocator<wchar_t> >, std::pair<std::basic_string<wchar_t, std::char_traits<wchar_t>, std::allocator<wchar_t> > const, std::pair<std::basic_string<wchar_t, std::char_traits<wchar_t>, std::allocator<wchar_t> >, unsigned long> >, std::_Select1st<std::pair<std::basic_string<wchar_t, std::char_traits<wchar_t>, std::allocator<wchar_t> > const, std::pair<std::basic_string<wchar_t, std::char_traits<wchar_t>, std::allocator<wchar_t> >, unsigned long> > >, std::less<std::basic_string<wchar_t, std::char_traits<wchar_t>, std::allocator<wchar_t> > >, std::allocator<std::pair<std::basic_string<wchar_t, std::char_traits<wchar_t>, std::allocator<wchar_t> > const, std::pair<std::basic_string<wchar_t, std::char_traits<wchar_t>, std::allocator<wchar_t> >, unsigned long> > > >::_M_erase(std::_Rb_tree_node<std::pair<std::basic_string<wchar_t, std::char_traits<wchar_t>, std::allocator<wchar_t> > const, std::pair<std::basic_string<wchar_t, std::char_traits<wchar_t>, std::allocator<wchar_t> >, unsigned long> > >*)
	_ZNSt8_Rb_treeISbIwSt11char_traitsIwESaIwEESt4pairIKS3_S4_IS3_mEESt10_Select1stIS7_ESt4lessIS3_ESaIS7_EE8_M_eraseEPSt13_Rb_tree_nodeIS7_E @ 1440
;	std::_Rb_tree<std::basic_string<wchar_t, std::char_traits<wchar_t>, std::allocator<wchar_t> >, std::pair<std::basic_string<wchar_t, std::char_traits<wchar_t>, std::allocator<wchar_t> > const, std::pair<std::basic_string<wchar_t, std::char_traits<wchar_t>, std::allocator<wchar_t> >, unsigned long> >, std::_Select1st<std::pair<std::basic_string<wchar_t, std::char_traits<wchar_t>, std::allocator<wchar_t> > const, std::pair<std::basic_string<wchar_t, std::char_traits<wchar_t>, std::allocator<wchar_t> >, unsigned long> > >, std::less<std::basic_string<wchar_t, std::char_traits<wchar_t>, std::allocator<wchar_t> > >, std::allocator<std::pair<std::basic_string<wchar_t, std::char_traits<wchar_t>, std::allocator<wchar_t> > const, std::pair<std::basic_string<wchar_t, std::char_traits<wchar_t>, std::allocator<wchar_t> >, unsigned long> > > >::_S_right(std::_Rb_tree_node_base*)
	_ZNSt8_Rb_treeISbIwSt11char_traitsIwESaIwEESt4pairIKS3_S4_IS3_mEESt10_Select1stIS7_ESt4lessIS3_ESaIS7_EE8_S_rightEPSt18_Rb_tree_node_base @ 1441
;	std::_Rb_tree<std::basic_string<wchar_t, std::char_traits<wchar_t>, std::allocator<wchar_t> >, std::pair<std::basic_string<wchar_t, std::char_traits<wchar_t>, std::allocator<wchar_t> > const, std::pair<std::basic_string<wchar_t, std::char_traits<wchar_t>, std::allocator<wchar_t> >, unsigned long> >, std::_Select1st<std::pair<std::basic_string<wchar_t, std::char_traits<wchar_t>, std::allocator<wchar_t> > const, std::pair<std::basic_string<wchar_t, std::char_traits<wchar_t>, std::allocator<wchar_t> >, unsigned long> > >, std::less<std::basic_string<wchar_t, std::char_traits<wchar_t>, std::allocator<wchar_t> > >, std::allocator<std::pair<std::basic_string<wchar_t, std::char_traits<wchar_t>, std::allocator<wchar_t> > const, std::pair<std::basic_string<wchar_t, std::char_traits<wchar_t>, std::allocator<wchar_t> >, unsigned long> > > >::_S_value(std::_Rb_tree_node<std::pair<std::basic_string<wchar_t, std::char_traits<wchar_t>, std::allocator<wchar_t> > const, std::pair<std::basic_string<wchar_t, std::char_traits<wchar_t>, std::allocator<wchar_t> >, unsigned long> > > const*)
	_ZNSt8_Rb_treeISbIwSt11char_traitsIwESaIwEESt4pairIKS3_S4_IS3_mEESt10_Select1stIS7_ESt4lessIS3_ESaIS7_EE8_S_valueEPKSt13_Rb_tree_nodeIS7_E @ 1442
;	std::_Rb_tree<std::basic_string<wchar_t, std::char_traits<wchar_t>, std::allocator<wchar_t> >, std::pair<std::basic_string<wchar_t, std::char_traits<wchar_t>, std::allocator<wchar_t> > const, std::pair<std::basic_string<wchar_t, std::char_traits<wchar_t>, std::allocator<wchar_t> >, unsigned long> >, std::_Select1st<std::pair<std::basic_string<wchar_t, std::char_traits<wchar_t>, std::allocator<wchar_t> > const, std::pair<std::basic_string<wchar_t, std::char_traits<wchar_t>, std::allocator<wchar_t> >, unsigned long> > >, std::less<std::basic_string<wchar_t, std::char_traits<wchar_t>, std::allocator<wchar_t> > >, std::allocator<std::pair<std::basic_string<wchar_t, std::char_traits<wchar_t>, std::allocator<wchar_t> > const, std::pair<std::basic_string<wchar_t, std::char_traits<wchar_t>, std::allocator<wchar_t> >, unsigned long> > > >::_S_value(std::_Rb_tree_node_base const*)
	_ZNSt8_Rb_treeISbIwSt11char_traitsIwESaIwEESt4pairIKS3_S4_IS3_mEESt10_Select1stIS7_ESt4lessIS3_ESaIS7_EE8_S_valueEPKSt18_Rb_tree_node_base @ 1443
;	std::_Rb_tree<std::basic_string<wchar_t, std::char_traits<wchar_t>, std::allocator<wchar_t> >, std::pair<std::basic_string<wchar_t, std::char_traits<wchar_t>, std::allocator<wchar_t> > const, std::pair<std::basic_string<wchar_t, std::char_traits<wchar_t>, std::allocator<wchar_t> >, unsigned long> >, std::_Select1st<std::pair<std::basic_string<wchar_t, std::char_traits<wchar_t>, std::allocator<wchar_t> > const, std::pair<std::basic_string<wchar_t, std::char_traits<wchar_t>, std::allocator<wchar_t> >, unsigned long> > >, std::less<std::basic_string<wchar_t, std::char_traits<wchar_t>, std::allocator<wchar_t> > >, std::allocator<std::pair<std::basic_string<wchar_t, std::char_traits<wchar_t>, std::allocator<wchar_t> > const, std::pair<std::basic_string<wchar_t, std::char_traits<wchar_t>, std::allocator<wchar_t> >, unsigned long> > > >::_M_insert(std::_Rb_tree_node_base*, std::_Rb_tree_node_base*, std::pair<std::basic_string<wchar_t, std::char_traits<wchar_t>, std::allocator<wchar_t> > const, std::pair<std::basic_string<wchar_t, std::char_traits<wchar_t>, std::allocator<wchar_t> >, unsigned long> > const&)
	_ZNSt8_Rb_treeISbIwSt11char_traitsIwESaIwEESt4pairIKS3_S4_IS3_mEESt10_Select1stIS7_ESt4lessIS3_ESaIS7_EE9_M_insertEPSt18_Rb_tree_node_baseSF_RKS7_ @ 1444
;	std::_Rb_tree<std::basic_string<wchar_t, std::char_traits<wchar_t>, std::allocator<wchar_t> >, std::pair<std::basic_string<wchar_t, std::char_traits<wchar_t>, std::allocator<wchar_t> > const, std::pair<std::basic_string<wchar_t, std::char_traits<wchar_t>, std::allocator<wchar_t> >, unsigned long> >, std::_Select1st<std::pair<std::basic_string<wchar_t, std::char_traits<wchar_t>, std::allocator<wchar_t> > const, std::pair<std::basic_string<wchar_t, std::char_traits<wchar_t>, std::allocator<wchar_t> >, unsigned long> > >, std::less<std::basic_string<wchar_t, std::char_traits<wchar_t>, std::allocator<wchar_t> > >, std::allocator<std::pair<std::basic_string<wchar_t, std::char_traits<wchar_t>, std::allocator<wchar_t> > const, std::pair<std::basic_string<wchar_t, std::char_traits<wchar_t>, std::allocator<wchar_t> >, unsigned long> > > >::_Rb_tree(std::less<std::basic_string<wchar_t, std::char_traits<wchar_t>, std::allocator<wchar_t> > > const&, std::allocator<std::pair<std::basic_string<wchar_t, std::char_traits<wchar_t>, std::allocator<wchar_t> > const, std::pair<std::basic_string<wchar_t, std::char_traits<wchar_t>, std::allocator<wchar_t> >, unsigned long> > > const&)
	_ZNSt8_Rb_treeISbIwSt11char_traitsIwESaIwEESt4pairIKS3_S4_IS3_mEESt10_Select1stIS7_ESt4lessIS3_ESaIS7_EEC1ERKSB_RKSC_ @ 1445
;	std::_Rb_tree<std::basic_string<wchar_t, std::char_traits<wchar_t>, std::allocator<wchar_t> >, std::pair<std::basic_string<wchar_t, std::char_traits<wchar_t>, std::allocator<wchar_t> > const, std::pair<std::basic_string<wchar_t, std::char_traits<wchar_t>, std::allocator<wchar_t> >, unsigned long> >, std::_Select1st<std::pair<std::basic_string<wchar_t, std::char_traits<wchar_t>, std::allocator<wchar_t> > const, std::pair<std::basic_string<wchar_t, std::char_traits<wchar_t>, std::allocator<wchar_t> >, unsigned long> > >, std::less<std::basic_string<wchar_t, std::char_traits<wchar_t>, std::allocator<wchar_t> > >, std::allocator<std::pair<std::basic_string<wchar_t, std::char_traits<wchar_t>, std::allocator<wchar_t> > const, std::pair<std::basic_string<wchar_t, std::char_traits<wchar_t>, std::allocator<wchar_t> >, unsigned long> > > >::~_Rb_tree()
	_ZNSt8_Rb_treeISbIwSt11char_traitsIwESaIwEESt4pairIKS3_S4_IS3_mEESt10_Select1stIS7_ESt4lessIS3_ESaIS7_EED1Ev @ 1446
;	std::_Rb_tree<std::string, std::pair<std::string const, Pattern*>, std::_Select1st<std::pair<std::string const, Pattern*> >, std::less<std::string>, std::allocator<std::pair<std::string const, Pattern*> > >::_M_get_node()
	_ZNSt8_Rb_treeISsSt4pairIKSsP7PatternESt10_Select1stIS4_ESt4lessISsESaIS4_EE11_M_get_nodeEv @ 1447
;	std::_Rb_tree<std::string, std::pair<std::string const, Pattern*>, std::_Select1st<std::pair<std::string const, Pattern*> >, std::less<std::string>, std::allocator<std::pair<std::string const, Pattern*> > >::_M_leftmost()
	_ZNSt8_Rb_treeISsSt4pairIKSsP7PatternESt10_Select1stIS4_ESt4lessISsESaIS4_EE11_M_leftmostEv @ 1448
;	std::_Rb_tree<std::string, std::pair<std::string const, Pattern*>, std::_Select1st<std::pair<std::string const, Pattern*> >, std::less<std::string>, std::allocator<std::pair<std::string const, Pattern*> > >::_M_put_node(std::_Rb_tree_node<std::pair<std::string const, Pattern*> >*)
	_ZNSt8_Rb_treeISsSt4pairIKSsP7PatternESt10_Select1stIS4_ESt4lessISsESaIS4_EE11_M_put_nodeEPSt13_Rb_tree_nodeIS4_E @ 1449
;	std::_Rb_tree<std::string, std::pair<std::string const, Pattern*>, std::_Select1st<std::pair<std::string const, Pattern*> >, std::less<std::string>, std::allocator<std::pair<std::string const, Pattern*> > >::lower_bound(std::string const&)
	_ZNSt8_Rb_treeISsSt4pairIKSsP7PatternESt10_Select1stIS4_ESt4lessISsESaIS4_EE11lower_boundERS1_ @ 1450
;	std::_Rb_tree<std::string, std::pair<std::string const, Pattern*>, std::_Select1st<std::pair<std::string const, Pattern*> >, std::less<std::string>, std::allocator<std::pair<std::string const, Pattern*> > >::_M_rightmost()
	_ZNSt8_Rb_treeISsSt4pairIKSsP7PatternESt10_Select1stIS4_ESt4lessISsESaIS4_EE12_M_rightmostEv @ 1451
;	std::_Rb_tree<std::string, std::pair<std::string const, Pattern*>, std::_Select1st<std::pair<std::string const, Pattern*> >, std::less<std::string>, std::allocator<std::pair<std::string const, Pattern*> > >::destroy_node(std::_Rb_tree_node<std::pair<std::string const, Pattern*> >*)
	_ZNSt8_Rb_treeISsSt4pairIKSsP7PatternESt10_Select1stIS4_ESt4lessISsESaIS4_EE12destroy_nodeEPSt13_Rb_tree_nodeIS4_E @ 1452
;	std::_Rb_tree<std::string, std::pair<std::string const, Pattern*>, std::_Select1st<std::pair<std::string const, Pattern*> >, std::less<std::string>, std::allocator<std::pair<std::string const, Pattern*> > >::_Rb_tree_impl<std::less<std::string>, false>::_Rb_tree_impl(std::allocator<std::_Rb_tree_node<std::pair<std::string const, Pattern*> > > const&, std::less<std::string> const&)
	_ZNSt8_Rb_treeISsSt4pairIKSsP7PatternESt10_Select1stIS4_ESt4lessISsESaIS4_EE13_Rb_tree_implIS8_Lb0EEC1ERKSaISt13_Rb_tree_nodeIS4_EERKS8_ @ 1453
;	std::_Rb_tree<std::string, std::pair<std::string const, Pattern*>, std::_Select1st<std::pair<std::string const, Pattern*> >, std::less<std::string>, std::allocator<std::pair<std::string const, Pattern*> > >::_Rb_tree_impl<std::less<std::string>, false>::~_Rb_tree_impl()
	_ZNSt8_Rb_treeISsSt4pairIKSsP7PatternESt10_Select1stIS4_ESt4lessISsESaIS4_EE13_Rb_tree_implIS8_Lb0EED1Ev @ 1454
;	std::_Rb_tree<std::string, std::pair<std::string const, Pattern*>, std::_Select1st<std::pair<std::string const, Pattern*> >, std::less<std::string>, std::allocator<std::pair<std::string const, Pattern*> > >::insert_unique(std::pair<std::string const, Pattern*> const&)
	_ZNSt8_Rb_treeISsSt4pairIKSsP7PatternESt10_Select1stIS4_ESt4lessISsESaIS4_EE13insert_uniqueERKS4_ @ 1455
;	std::_Rb_tree<std::string, std::pair<std::string const, Pattern*>, std::_Select1st<std::pair<std::string const, Pattern*> >, std::less<std::string>, std::allocator<std::pair<std::string const, Pattern*> > >::insert_unique(std::_Rb_tree_iterator<std::pair<std::string const, Pattern*> >, std::pair<std::string const, Pattern*> const&)
	_ZNSt8_Rb_treeISsSt4pairIKSsP7PatternESt10_Select1stIS4_ESt4lessISsESaIS4_EE13insert_uniqueESt17_Rb_tree_iteratorIS4_ERKS4_ @ 1456
;	std::_Rb_tree<std::string, std::pair<std::string const, Pattern*>, std::_Select1st<std::pair<std::string const, Pattern*> >, std::less<std::string>, std::allocator<std::pair<std::string const, Pattern*> > >::_M_create_node(std::pair<std::string const, Pattern*> const&)
	_ZNSt8_Rb_treeISsSt4pairIKSsP7PatternESt10_Select1stIS4_ESt4lessISsESaIS4_EE14_M_create_nodeERKS4_ @ 1457
;	std::_Rb_tree<std::string, std::pair<std::string const, Pattern*>, std::_Select1st<std::pair<std::string const, Pattern*> >, std::less<std::string>, std::allocator<std::pair<std::string const, Pattern*> > >::end()
	_ZNSt8_Rb_treeISsSt4pairIKSsP7PatternESt10_Select1stIS4_ESt4lessISsESaIS4_EE3endEv @ 1458
;	std::_Rb_tree<std::string, std::pair<std::string const, Pattern*>, std::_Select1st<std::pair<std::string const, Pattern*> >, std::less<std::string>, std::allocator<std::pair<std::string const, Pattern*> > >::find(std::string const&)
	_ZNSt8_Rb_treeISsSt4pairIKSsP7PatternESt10_Select1stIS4_ESt4lessISsESaIS4_EE4findERS1_ @ 1459
;	std::_Rb_tree<std::string, std::pair<std::string const, Pattern*>, std::_Select1st<std::pair<std::string const, Pattern*> >, std::less<std::string>, std::allocator<std::pair<std::string const, Pattern*> > >::begin()
	_ZNSt8_Rb_treeISsSt4pairIKSsP7PatternESt10_Select1stIS4_ESt4lessISsESaIS4_EE5beginEv @ 1460
;	std::_Rb_tree<std::string, std::pair<std::string const, Pattern*>, std::_Select1st<std::pair<std::string const, Pattern*> >, std::less<std::string>, std::allocator<std::pair<std::string const, Pattern*> > >::clear()
	_ZNSt8_Rb_treeISsSt4pairIKSsP7PatternESt10_Select1stIS4_ESt4lessISsESaIS4_EE5clearEv @ 1461
;	std::_Rb_tree<std::string, std::pair<std::string const, Pattern*>, std::_Select1st<std::pair<std::string const, Pattern*> >, std::less<std::string>, std::allocator<std::pair<std::string const, Pattern*> > >::_M_end()
	_ZNSt8_Rb_treeISsSt4pairIKSsP7PatternESt10_Select1stIS4_ESt4lessISsESaIS4_EE6_M_endEv @ 1462
;	std::_Rb_tree<std::string, std::pair<std::string const, Pattern*>, std::_Select1st<std::pair<std::string const, Pattern*> >, std::less<std::string>, std::allocator<std::pair<std::string const, Pattern*> > >::_S_key(std::_Rb_tree_node<std::pair<std::string const, Pattern*> > const*)
	_ZNSt8_Rb_treeISsSt4pairIKSsP7PatternESt10_Select1stIS4_ESt4lessISsESaIS4_EE6_S_keyEPKSt13_Rb_tree_nodeIS4_E @ 1463
;	std::_Rb_tree<std::string, std::pair<std::string const, Pattern*>, std::_Select1st<std::pair<std::string const, Pattern*> >, std::less<std::string>, std::allocator<std::pair<std::string const, Pattern*> > >::_S_key(std::_Rb_tree_node_base const*)
	_ZNSt8_Rb_treeISsSt4pairIKSsP7PatternESt10_Select1stIS4_ESt4lessISsESaIS4_EE6_S_keyEPKSt18_Rb_tree_node_base @ 1464
;	std::_Rb_tree<std::string, std::pair<std::string const, Pattern*>, std::_Select1st<std::pair<std::string const, Pattern*> >, std::less<std::string>, std::allocator<std::pair<std::string const, Pattern*> > >::_M_root()
	_ZNSt8_Rb_treeISsSt4pairIKSsP7PatternESt10_Select1stIS4_ESt4lessISsESaIS4_EE7_M_rootEv @ 1465
;	std::_Rb_tree<std::string, std::pair<std::string const, Pattern*>, std::_Select1st<std::pair<std::string const, Pattern*> >, std::less<std::string>, std::allocator<std::pair<std::string const, Pattern*> > >::_S_left(std::_Rb_tree_node_base*)
	_ZNSt8_Rb_treeISsSt4pairIKSsP7PatternESt10_Select1stIS4_ESt4lessISsESaIS4_EE7_S_leftEPSt18_Rb_tree_node_base @ 1466
;	std::_Rb_tree<std::string, std::pair<std::string const, Pattern*>, std::_Select1st<std::pair<std::string const, Pattern*> >, std::less<std::string>, std::allocator<std::pair<std::string const, Pattern*> > >::_M_begin()
	_ZNSt8_Rb_treeISsSt4pairIKSsP7PatternESt10_Select1stIS4_ESt4lessISsESaIS4_EE8_M_beginEv @ 1467
;	std::_Rb_tree<std::string, std::pair<std::string const, Pattern*>, std::_Select1st<std::pair<std::string const, Pattern*> >, std::less<std::string>, std::allocator<std::pair<std::string const, Pattern*> > >::_M_erase(std::_Rb_tree_node<std::pair<std::string const, Pattern*> >*)
	_ZNSt8_Rb_treeISsSt4pairIKSsP7PatternESt10_Select1stIS4_ESt4lessISsESaIS4_EE8_M_eraseEPSt13_Rb_tree_nodeIS4_E @ 1468
;	std::_Rb_tree<std::string, std::pair<std::string const, Pattern*>, std::_Select1st<std::pair<std::string const, Pattern*> >, std::less<std::string>, std::allocator<std::pair<std::string const, Pattern*> > >::_S_right(std::_Rb_tree_node_base*)
	_ZNSt8_Rb_treeISsSt4pairIKSsP7PatternESt10_Select1stIS4_ESt4lessISsESaIS4_EE8_S_rightEPSt18_Rb_tree_node_base @ 1469
;	std::_Rb_tree<std::string, std::pair<std::string const, Pattern*>, std::_Select1st<std::pair<std::string const, Pattern*> >, std::less<std::string>, std::allocator<std::pair<std::string const, Pattern*> > >::_S_value(std::_Rb_tree_node<std::pair<std::string const, Pattern*> > const*)
	_ZNSt8_Rb_treeISsSt4pairIKSsP7PatternESt10_Select1stIS4_ESt4lessISsESaIS4_EE8_S_valueEPKSt13_Rb_tree_nodeIS4_E @ 1470
;	std::_Rb_tree<std::string, std::pair<std::string const, Pattern*>, std::_Select1st<std::pair<std::string const, Pattern*> >, std::less<std::string>, std::allocator<std::pair<std::string const, Pattern*> > >::_S_value(std::_Rb_tree_node_base const*)
	_ZNSt8_Rb_treeISsSt4pairIKSsP7PatternESt10_Select1stIS4_ESt4lessISsESaIS4_EE8_S_valueEPKSt18_Rb_tree_node_base @ 1471
;	std::_Rb_tree<std::string, std::pair<std::string const, Pattern*>, std::_Select1st<std::pair<std::string const, Pattern*> >, std::less<std::string>, std::allocator<std::pair<std::string const, Pattern*> > >::_M_insert(std::_Rb_tree_node_base*, std::_Rb_tree_node_base*, std::pair<std::string const, Pattern*> const&)
	_ZNSt8_Rb_treeISsSt4pairIKSsP7PatternESt10_Select1stIS4_ESt4lessISsESaIS4_EE9_M_insertEPSt18_Rb_tree_node_baseSC_RKS4_ @ 1472
;	std::_Rb_tree<std::string, std::pair<std::string const, Pattern*>, std::_Select1st<std::pair<std::string const, Pattern*> >, std::less<std::string>, std::allocator<std::pair<std::string const, Pattern*> > >::_Rb_tree(std::less<std::string> const&, std::allocator<std::pair<std::string const, Pattern*> > const&)
	_ZNSt8_Rb_treeISsSt4pairIKSsP7PatternESt10_Select1stIS4_ESt4lessISsESaIS4_EEC1ERKS8_RKS9_ @ 1473
;	std::_Rb_tree<std::string, std::pair<std::string const, Pattern*>, std::_Select1st<std::pair<std::string const, Pattern*> >, std::less<std::string>, std::allocator<std::pair<std::string const, Pattern*> > >::~_Rb_tree()
	_ZNSt8_Rb_treeISsSt4pairIKSsP7PatternESt10_Select1stIS4_ESt4lessISsESaIS4_EED1Ev @ 1474
;	std::_Rb_tree<std::string, std::pair<std::string const, std::pair<std::string, unsigned long> >, std::_Select1st<std::pair<std::string const, std::pair<std::string, unsigned long> > >, std::less<std::string>, std::allocator<std::pair<std::string const, std::pair<std::string, unsigned long> > > >::_M_get_node()
	_ZNSt8_Rb_treeISsSt4pairIKSsS0_ISsmEESt10_Select1stIS3_ESt4lessISsESaIS3_EE11_M_get_nodeEv @ 1475
;	std::_Rb_tree<std::string, std::pair<std::string const, std::pair<std::string, unsigned long> >, std::_Select1st<std::pair<std::string const, std::pair<std::string, unsigned long> > >, std::less<std::string>, std::allocator<std::pair<std::string const, std::pair<std::string, unsigned long> > > >::_M_leftmost()
	_ZNSt8_Rb_treeISsSt4pairIKSsS0_ISsmEESt10_Select1stIS3_ESt4lessISsESaIS3_EE11_M_leftmostEv @ 1476
;	std::_Rb_tree<std::string, std::pair<std::string const, std::pair<std::string, unsigned long> >, std::_Select1st<std::pair<std::string const, std::pair<std::string, unsigned long> > >, std::less<std::string>, std::allocator<std::pair<std::string const, std::pair<std::string, unsigned long> > > >::_M_put_node(std::_Rb_tree_node<std::pair<std::string const, std::pair<std::string, unsigned long> > >*)
	_ZNSt8_Rb_treeISsSt4pairIKSsS0_ISsmEESt10_Select1stIS3_ESt4lessISsESaIS3_EE11_M_put_nodeEPSt13_Rb_tree_nodeIS3_E @ 1477
;	std::_Rb_tree<std::string, std::pair<std::string const, std::pair<std::string, unsigned long> >, std::_Select1st<std::pair<std::string const, std::pair<std::string, unsigned long> > >, std::less<std::string>, std::allocator<std::pair<std::string const, std::pair<std::string, unsigned long> > > >::lower_bound(std::string const&)
	_ZNSt8_Rb_treeISsSt4pairIKSsS0_ISsmEESt10_Select1stIS3_ESt4lessISsESaIS3_EE11lower_boundERS1_ @ 1478
;	std::_Rb_tree<std::string, std::pair<std::string const, std::pair<std::string, unsigned long> >, std::_Select1st<std::pair<std::string const, std::pair<std::string, unsigned long> > >, std::less<std::string>, std::allocator<std::pair<std::string const, std::pair<std::string, unsigned long> > > >::_M_rightmost()
	_ZNSt8_Rb_treeISsSt4pairIKSsS0_ISsmEESt10_Select1stIS3_ESt4lessISsESaIS3_EE12_M_rightmostEv @ 1479
;	std::_Rb_tree<std::string, std::pair<std::string const, std::pair<std::string, unsigned long> >, std::_Select1st<std::pair<std::string const, std::pair<std::string, unsigned long> > >, std::less<std::string>, std::allocator<std::pair<std::string const, std::pair<std::string, unsigned long> > > >::destroy_node(std::_Rb_tree_node<std::pair<std::string const, std::pair<std::string, unsigned long> > >*)
	_ZNSt8_Rb_treeISsSt4pairIKSsS0_ISsmEESt10_Select1stIS3_ESt4lessISsESaIS3_EE12destroy_nodeEPSt13_Rb_tree_nodeIS3_E @ 1480
;	std::_Rb_tree<std::string, std::pair<std::string const, std::pair<std::string, unsigned long> >, std::_Select1st<std::pair<std::string const, std::pair<std::string, unsigned long> > >, std::less<std::string>, std::allocator<std::pair<std::string const, std::pair<std::string, unsigned long> > > >::_Rb_tree_impl<std::less<std::string>, false>::_Rb_tree_impl(std::allocator<std::_Rb_tree_node<std::pair<std::string const, std::pair<std::string, unsigned long> > > > const&, std::less<std::string> const&)
	_ZNSt8_Rb_treeISsSt4pairIKSsS0_ISsmEESt10_Select1stIS3_ESt4lessISsESaIS3_EE13_Rb_tree_implIS7_Lb0EEC1ERKSaISt13_Rb_tree_nodeIS3_EERKS7_ @ 1481
;	std::_Rb_tree<std::string, std::pair<std::string const, std::pair<std::string, unsigned long> >, std::_Select1st<std::pair<std::string const, std::pair<std::string, unsigned long> > >, std::less<std::string>, std::allocator<std::pair<std::string const, std::pair<std::string, unsigned long> > > >::_Rb_tree_impl<std::less<std::string>, false>::~_Rb_tree_impl()
	_ZNSt8_Rb_treeISsSt4pairIKSsS0_ISsmEESt10_Select1stIS3_ESt4lessISsESaIS3_EE13_Rb_tree_implIS7_Lb0EED1Ev @ 1482
;	std::_Rb_tree<std::string, std::pair<std::string const, std::pair<std::string, unsigned long> >, std::_Select1st<std::pair<std::string const, std::pair<std::string, unsigned long> > >, std::less<std::string>, std::allocator<std::pair<std::string const, std::pair<std::string, unsigned long> > > >::insert_unique(std::pair<std::string const, std::pair<std::string, unsigned long> > const&)
	_ZNSt8_Rb_treeISsSt4pairIKSsS0_ISsmEESt10_Select1stIS3_ESt4lessISsESaIS3_EE13insert_uniqueERKS3_ @ 1483
;	std::_Rb_tree<std::string, std::pair<std::string const, std::pair<std::string, unsigned long> >, std::_Select1st<std::pair<std::string const, std::pair<std::string, unsigned long> > >, std::less<std::string>, std::allocator<std::pair<std::string const, std::pair<std::string, unsigned long> > > >::insert_unique(std::_Rb_tree_iterator<std::pair<std::string const, std::pair<std::string, unsigned long> > >, std::pair<std::string const, std::pair<std::string, unsigned long> > const&)
	_ZNSt8_Rb_treeISsSt4pairIKSsS0_ISsmEESt10_Select1stIS3_ESt4lessISsESaIS3_EE13insert_uniqueESt17_Rb_tree_iteratorIS3_ERKS3_ @ 1484
;	std::_Rb_tree<std::string, std::pair<std::string const, std::pair<std::string, unsigned long> >, std::_Select1st<std::pair<std::string const, std::pair<std::string, unsigned long> > >, std::less<std::string>, std::allocator<std::pair<std::string const, std::pair<std::string, unsigned long> > > >::_M_create_node(std::pair<std::string const, std::pair<std::string, unsigned long> > const&)
	_ZNSt8_Rb_treeISsSt4pairIKSsS0_ISsmEESt10_Select1stIS3_ESt4lessISsESaIS3_EE14_M_create_nodeERKS3_ @ 1485
;	std::_Rb_tree<std::string, std::pair<std::string const, std::pair<std::string, unsigned long> >, std::_Select1st<std::pair<std::string const, std::pair<std::string, unsigned long> > >, std::less<std::string>, std::allocator<std::pair<std::string const, std::pair<std::string, unsigned long> > > >::end()
	_ZNSt8_Rb_treeISsSt4pairIKSsS0_ISsmEESt10_Select1stIS3_ESt4lessISsESaIS3_EE3endEv @ 1486
;	std::_Rb_tree<std::string, std::pair<std::string const, std::pair<std::string, unsigned long> >, std::_Select1st<std::pair<std::string const, std::pair<std::string, unsigned long> > >, std::less<std::string>, std::allocator<std::pair<std::string const, std::pair<std::string, unsigned long> > > >::find(std::string const&)
	_ZNSt8_Rb_treeISsSt4pairIKSsS0_ISsmEESt10_Select1stIS3_ESt4lessISsESaIS3_EE4findERS1_ @ 1487
;	std::_Rb_tree<std::string, std::pair<std::string const, std::pair<std::string, unsigned long> >, std::_Select1st<std::pair<std::string const, std::pair<std::string, unsigned long> > >, std::less<std::string>, std::allocator<std::pair<std::string const, std::pair<std::string, unsigned long> > > >::begin()
	_ZNSt8_Rb_treeISsSt4pairIKSsS0_ISsmEESt10_Select1stIS3_ESt4lessISsESaIS3_EE5beginEv @ 1488
;	std::_Rb_tree<std::string, std::pair<std::string const, std::pair<std::string, unsigned long> >, std::_Select1st<std::pair<std::string const, std::pair<std::string, unsigned long> > >, std::less<std::string>, std::allocator<std::pair<std::string const, std::pair<std::string, unsigned long> > > >::clear()
	_ZNSt8_Rb_treeISsSt4pairIKSsS0_ISsmEESt10_Select1stIS3_ESt4lessISsESaIS3_EE5clearEv @ 1489
;	std::_Rb_tree<std::string, std::pair<std::string const, std::pair<std::string, unsigned long> >, std::_Select1st<std::pair<std::string const, std::pair<std::string, unsigned long> > >, std::less<std::string>, std::allocator<std::pair<std::string const, std::pair<std::string, unsigned long> > > >::_M_end()
	_ZNSt8_Rb_treeISsSt4pairIKSsS0_ISsmEESt10_Select1stIS3_ESt4lessISsESaIS3_EE6_M_endEv @ 1490
;	std::_Rb_tree<std::string, std::pair<std::string const, std::pair<std::string, unsigned long> >, std::_Select1st<std::pair<std::string const, std::pair<std::string, unsigned long> > >, std::less<std::string>, std::allocator<std::pair<std::string const, std::pair<std::string, unsigned long> > > >::_S_key(std::_Rb_tree_node<std::pair<std::string const, std::pair<std::string, unsigned long> > > const*)
	_ZNSt8_Rb_treeISsSt4pairIKSsS0_ISsmEESt10_Select1stIS3_ESt4lessISsESaIS3_EE6_S_keyEPKSt13_Rb_tree_nodeIS3_E @ 1491
;	std::_Rb_tree<std::string, std::pair<std::string const, std::pair<std::string, unsigned long> >, std::_Select1st<std::pair<std::string const, std::pair<std::string, unsigned long> > >, std::less<std::string>, std::allocator<std::pair<std::string const, std::pair<std::string, unsigned long> > > >::_S_key(std::_Rb_tree_node_base const*)
	_ZNSt8_Rb_treeISsSt4pairIKSsS0_ISsmEESt10_Select1stIS3_ESt4lessISsESaIS3_EE6_S_keyEPKSt18_Rb_tree_node_base @ 1492
;	std::_Rb_tree<std::string, std::pair<std::string const, std::pair<std::string, unsigned long> >, std::_Select1st<std::pair<std::string const, std::pair<std::string, unsigned long> > >, std::less<std::string>, std::allocator<std::pair<std::string const, std::pair<std::string, unsigned long> > > >::_M_root()
	_ZNSt8_Rb_treeISsSt4pairIKSsS0_ISsmEESt10_Select1stIS3_ESt4lessISsESaIS3_EE7_M_rootEv @ 1493
;	std::_Rb_tree<std::string, std::pair<std::string const, std::pair<std::string, unsigned long> >, std::_Select1st<std::pair<std::string const, std::pair<std::string, unsigned long> > >, std::less<std::string>, std::allocator<std::pair<std::string const, std::pair<std::string, unsigned long> > > >::_S_left(std::_Rb_tree_node_base*)
	_ZNSt8_Rb_treeISsSt4pairIKSsS0_ISsmEESt10_Select1stIS3_ESt4lessISsESaIS3_EE7_S_leftEPSt18_Rb_tree_node_base @ 1494
;	std::_Rb_tree<std::string, std::pair<std::string const, std::pair<std::string, unsigned long> >, std::_Select1st<std::pair<std::string const, std::pair<std::string, unsigned long> > >, std::less<std::string>, std::allocator<std::pair<std::string const, std::pair<std::string, unsigned long> > > >::_M_begin()
	_ZNSt8_Rb_treeISsSt4pairIKSsS0_ISsmEESt10_Select1stIS3_ESt4lessISsESaIS3_EE8_M_beginEv @ 1495
;	std::_Rb_tree<std::string, std::pair<std::string const, std::pair<std::string, unsigned long> >, std::_Select1st<std::pair<std::string const, std::pair<std::string, unsigned long> > >, std::less<std::string>, std::allocator<std::pair<std::string const, std::pair<std::string, unsigned long> > > >::_M_erase(std::_Rb_tree_node<std::pair<std::string const, std::pair<std::string, unsigned long> > >*)
	_ZNSt8_Rb_treeISsSt4pairIKSsS0_ISsmEESt10_Select1stIS3_ESt4lessISsESaIS3_EE8_M_eraseEPSt13_Rb_tree_nodeIS3_E @ 1496
;	std::_Rb_tree<std::string, std::pair<std::string const, std::pair<std::string, unsigned long> >, std::_Select1st<std::pair<std::string const, std::pair<std::string, unsigned long> > >, std::less<std::string>, std::allocator<std::pair<std::string const, std::pair<std::string, unsigned long> > > >::_S_right(std::_Rb_tree_node_base*)
	_ZNSt8_Rb_treeISsSt4pairIKSsS0_ISsmEESt10_Select1stIS3_ESt4lessISsESaIS3_EE8_S_rightEPSt18_Rb_tree_node_base @ 1497
;	std::_Rb_tree<std::string, std::pair<std::string const, std::pair<std::string, unsigned long> >, std::_Select1st<std::pair<std::string const, std::pair<std::string, unsigned long> > >, std::less<std::string>, std::allocator<std::pair<std::string const, std::pair<std::string, unsigned long> > > >::_S_value(std::_Rb_tree_node<std::pair<std::string const, std::pair<std::string, unsigned long> > > const*)
	_ZNSt8_Rb_treeISsSt4pairIKSsS0_ISsmEESt10_Select1stIS3_ESt4lessISsESaIS3_EE8_S_valueEPKSt13_Rb_tree_nodeIS3_E @ 1498
;	std::_Rb_tree<std::string, std::pair<std::string const, std::pair<std::string, unsigned long> >, std::_Select1st<std::pair<std::string const, std::pair<std::string, unsigned long> > >, std::less<std::string>, std::allocator<std::pair<std::string const, std::pair<std::string, unsigned long> > > >::_S_value(std::_Rb_tree_node_base const*)
	_ZNSt8_Rb_treeISsSt4pairIKSsS0_ISsmEESt10_Select1stIS3_ESt4lessISsESaIS3_EE8_S_valueEPKSt18_Rb_tree_node_base @ 1499
;	std::_Rb_tree<std::string, std::pair<std::string const, std::pair<std::string, unsigned long> >, std::_Select1st<std::pair<std::string const, std::pair<std::string, unsigned long> > >, std::less<std::string>, std::allocator<std::pair<std::string const, std::pair<std::string, unsigned long> > > >::_M_insert(std::_Rb_tree_node_base*, std::_Rb_tree_node_base*, std::pair<std::string const, std::pair<std::string, unsigned long> > const&)
	_ZNSt8_Rb_treeISsSt4pairIKSsS0_ISsmEESt10_Select1stIS3_ESt4lessISsESaIS3_EE9_M_insertEPSt18_Rb_tree_node_baseSB_RKS3_ @ 1500
;	std::_Rb_tree<std::string, std::pair<std::string const, std::pair<std::string, unsigned long> >, std::_Select1st<std::pair<std::string const, std::pair<std::string, unsigned long> > >, std::less<std::string>, std::allocator<std::pair<std::string const, std::pair<std::string, unsigned long> > > >::_Rb_tree(std::less<std::string> const&, std::allocator<std::pair<std::string const, std::pair<std::string, unsigned long> > > const&)
	_ZNSt8_Rb_treeISsSt4pairIKSsS0_ISsmEESt10_Select1stIS3_ESt4lessISsESaIS3_EEC1ERKS7_RKS8_ @ 1501
;	std::_Rb_tree<std::string, std::pair<std::string const, std::pair<std::string, unsigned long> >, std::_Select1st<std::pair<std::string const, std::pair<std::string, unsigned long> > >, std::less<std::string>, std::allocator<std::pair<std::string const, std::pair<std::string, unsigned long> > > >::~_Rb_tree()
	_ZNSt8_Rb_treeISsSt4pairIKSsS0_ISsmEESt10_Select1stIS3_ESt4lessISsESaIS3_EED1Ev @ 1502
;	std::_Rb_tree<char, std::pair<char const, bool>, std::_Select1st<std::pair<char const, bool> >, std::less<char>, std::allocator<std::pair<char const, bool> > >::_M_get_node()
	_ZNSt8_Rb_treeIcSt4pairIKcbESt10_Select1stIS2_ESt4lessIcESaIS2_EE11_M_get_nodeEv @ 1503
;	std::_Rb_tree<char, std::pair<char const, bool>, std::_Select1st<std::pair<char const, bool> >, std::less<char>, std::allocator<std::pair<char const, bool> > >::_M_leftmost()
	_ZNSt8_Rb_treeIcSt4pairIKcbESt10_Select1stIS2_ESt4lessIcESaIS2_EE11_M_leftmostEv @ 1504
;	std::_Rb_tree<char, std::pair<char const, bool>, std::_Select1st<std::pair<char const, bool> >, std::less<char>, std::allocator<std::pair<char const, bool> > >::_M_put_node(std::_Rb_tree_node<std::pair<char const, bool> >*)
	_ZNSt8_Rb_treeIcSt4pairIKcbESt10_Select1stIS2_ESt4lessIcESaIS2_EE11_M_put_nodeEPSt13_Rb_tree_nodeIS2_E @ 1505
;	std::_Rb_tree<char, std::pair<char const, bool>, std::_Select1st<std::pair<char const, bool> >, std::less<char>, std::allocator<std::pair<char const, bool> > >::lower_bound(char const&)
	_ZNSt8_Rb_treeIcSt4pairIKcbESt10_Select1stIS2_ESt4lessIcESaIS2_EE11lower_boundERS1_ @ 1506
;	std::_Rb_tree<char, std::pair<char const, bool>, std::_Select1st<std::pair<char const, bool> >, std::less<char>, std::allocator<std::pair<char const, bool> > >::_M_rightmost()
	_ZNSt8_Rb_treeIcSt4pairIKcbESt10_Select1stIS2_ESt4lessIcESaIS2_EE12_M_rightmostEv @ 1507
;	std::_Rb_tree<char, std::pair<char const, bool>, std::_Select1st<std::pair<char const, bool> >, std::less<char>, std::allocator<std::pair<char const, bool> > >::destroy_node(std::_Rb_tree_node<std::pair<char const, bool> >*)
	_ZNSt8_Rb_treeIcSt4pairIKcbESt10_Select1stIS2_ESt4lessIcESaIS2_EE12destroy_nodeEPSt13_Rb_tree_nodeIS2_E @ 1508
;	std::_Rb_tree<char, std::pair<char const, bool>, std::_Select1st<std::pair<char const, bool> >, std::less<char>, std::allocator<std::pair<char const, bool> > >::_Rb_tree_impl<std::less<char>, false>::_Rb_tree_impl(std::allocator<std::_Rb_tree_node<std::pair<char const, bool> > > const&, std::less<char> const&)
	_ZNSt8_Rb_treeIcSt4pairIKcbESt10_Select1stIS2_ESt4lessIcESaIS2_EE13_Rb_tree_implIS6_Lb0EEC1ERKSaISt13_Rb_tree_nodeIS2_EERKS6_ @ 1509
;	std::_Rb_tree<char, std::pair<char const, bool>, std::_Select1st<std::pair<char const, bool> >, std::less<char>, std::allocator<std::pair<char const, bool> > >::_Rb_tree_impl<std::less<char>, false>::~_Rb_tree_impl()
	_ZNSt8_Rb_treeIcSt4pairIKcbESt10_Select1stIS2_ESt4lessIcESaIS2_EE13_Rb_tree_implIS6_Lb0EED1Ev @ 1510
;	std::_Rb_tree<char, std::pair<char const, bool>, std::_Select1st<std::pair<char const, bool> >, std::less<char>, std::allocator<std::pair<char const, bool> > >::insert_unique(std::pair<char const, bool> const&)
	_ZNSt8_Rb_treeIcSt4pairIKcbESt10_Select1stIS2_ESt4lessIcESaIS2_EE13insert_uniqueERKS2_ @ 1511
;	std::_Rb_tree<char, std::pair<char const, bool>, std::_Select1st<std::pair<char const, bool> >, std::less<char>, std::allocator<std::pair<char const, bool> > >::insert_unique(std::_Rb_tree_iterator<std::pair<char const, bool> >, std::pair<char const, bool> const&)
	_ZNSt8_Rb_treeIcSt4pairIKcbESt10_Select1stIS2_ESt4lessIcESaIS2_EE13insert_uniqueESt17_Rb_tree_iteratorIS2_ERKS2_ @ 1512
;	std::_Rb_tree<char, std::pair<char const, bool>, std::_Select1st<std::pair<char const, bool> >, std::less<char>, std::allocator<std::pair<char const, bool> > >::_M_create_node(std::pair<char const, bool> const&)
	_ZNSt8_Rb_treeIcSt4pairIKcbESt10_Select1stIS2_ESt4lessIcESaIS2_EE14_M_create_nodeERKS2_ @ 1513
;	std::_Rb_tree<char, std::pair<char const, bool>, std::_Select1st<std::pair<char const, bool> >, std::less<char>, std::allocator<std::pair<char const, bool> > >::end()
	_ZNSt8_Rb_treeIcSt4pairIKcbESt10_Select1stIS2_ESt4lessIcESaIS2_EE3endEv @ 1514
;	std::_Rb_tree<char, std::pair<char const, bool>, std::_Select1st<std::pair<char const, bool> >, std::less<char>, std::allocator<std::pair<char const, bool> > >::find(char const&)
	_ZNSt8_Rb_treeIcSt4pairIKcbESt10_Select1stIS2_ESt4lessIcESaIS2_EE4findERS1_ @ 1515
;	std::_Rb_tree<char, std::pair<char const, bool>, std::_Select1st<std::pair<char const, bool> >, std::less<char>, std::allocator<std::pair<char const, bool> > >::begin()
	_ZNSt8_Rb_treeIcSt4pairIKcbESt10_Select1stIS2_ESt4lessIcESaIS2_EE5beginEv @ 1516
;	std::_Rb_tree<char, std::pair<char const, bool>, std::_Select1st<std::pair<char const, bool> >, std::less<char>, std::allocator<std::pair<char const, bool> > >::_M_end()
	_ZNSt8_Rb_treeIcSt4pairIKcbESt10_Select1stIS2_ESt4lessIcESaIS2_EE6_M_endEv @ 1517
;	std::_Rb_tree<char, std::pair<char const, bool>, std::_Select1st<std::pair<char const, bool> >, std::less<char>, std::allocator<std::pair<char const, bool> > >::_S_key(std::_Rb_tree_node<std::pair<char const, bool> > const*)
	_ZNSt8_Rb_treeIcSt4pairIKcbESt10_Select1stIS2_ESt4lessIcESaIS2_EE6_S_keyEPKSt13_Rb_tree_nodeIS2_E @ 1518
;	std::_Rb_tree<char, std::pair<char const, bool>, std::_Select1st<std::pair<char const, bool> >, std::less<char>, std::allocator<std::pair<char const, bool> > >::_S_key(std::_Rb_tree_node_base const*)
	_ZNSt8_Rb_treeIcSt4pairIKcbESt10_Select1stIS2_ESt4lessIcESaIS2_EE6_S_keyEPKSt18_Rb_tree_node_base @ 1519
;	std::_Rb_tree<char, std::pair<char const, bool>, std::_Select1st<std::pair<char const, bool> >, std::less<char>, std::allocator<std::pair<char const, bool> > >::_S_left(std::_Rb_tree_node_base const*)
	_ZNSt8_Rb_treeIcSt4pairIKcbESt10_Select1stIS2_ESt4lessIcESaIS2_EE7_S_leftEPKSt18_Rb_tree_node_base @ 1520
;	std::_Rb_tree<char, std::pair<char const, bool>, std::_Select1st<std::pair<char const, bool> >, std::less<char>, std::allocator<std::pair<char const, bool> > >::_S_left(std::_Rb_tree_node_base*)
	_ZNSt8_Rb_treeIcSt4pairIKcbESt10_Select1stIS2_ESt4lessIcESaIS2_EE7_S_leftEPSt18_Rb_tree_node_base @ 1521
;	std::_Rb_tree<char, std::pair<char const, bool>, std::_Select1st<std::pair<char const, bool> >, std::less<char>, std::allocator<std::pair<char const, bool> > >::_M_begin()
	_ZNSt8_Rb_treeIcSt4pairIKcbESt10_Select1stIS2_ESt4lessIcESaIS2_EE8_M_beginEv @ 1522
;	std::_Rb_tree<char, std::pair<char const, bool>, std::_Select1st<std::pair<char const, bool> >, std::less<char>, std::allocator<std::pair<char const, bool> > >::_M_erase(std::_Rb_tree_node<std::pair<char const, bool> >*)
	_ZNSt8_Rb_treeIcSt4pairIKcbESt10_Select1stIS2_ESt4lessIcESaIS2_EE8_M_eraseEPSt13_Rb_tree_nodeIS2_E @ 1523
;	std::_Rb_tree<char, std::pair<char const, bool>, std::_Select1st<std::pair<char const, bool> >, std::less<char>, std::allocator<std::pair<char const, bool> > >::_S_right(std::_Rb_tree_node_base const*)
	_ZNSt8_Rb_treeIcSt4pairIKcbESt10_Select1stIS2_ESt4lessIcESaIS2_EE8_S_rightEPKSt18_Rb_tree_node_base @ 1524
;	std::_Rb_tree<char, std::pair<char const, bool>, std::_Select1st<std::pair<char const, bool> >, std::less<char>, std::allocator<std::pair<char const, bool> > >::_S_right(std::_Rb_tree_node_base*)
	_ZNSt8_Rb_treeIcSt4pairIKcbESt10_Select1stIS2_ESt4lessIcESaIS2_EE8_S_rightEPSt18_Rb_tree_node_base @ 1525
;	std::_Rb_tree<char, std::pair<char const, bool>, std::_Select1st<std::pair<char const, bool> >, std::less<char>, std::allocator<std::pair<char const, bool> > >::_S_value(std::_Rb_tree_node<std::pair<char const, bool> > const*)
	_ZNSt8_Rb_treeIcSt4pairIKcbESt10_Select1stIS2_ESt4lessIcESaIS2_EE8_S_valueEPKSt13_Rb_tree_nodeIS2_E @ 1526
;	std::_Rb_tree<char, std::pair<char const, bool>, std::_Select1st<std::pair<char const, bool> >, std::less<char>, std::allocator<std::pair<char const, bool> > >::_S_value(std::_Rb_tree_node_base const*)
	_ZNSt8_Rb_treeIcSt4pairIKcbESt10_Select1stIS2_ESt4lessIcESaIS2_EE8_S_valueEPKSt18_Rb_tree_node_base @ 1527
;	std::_Rb_tree<char, std::pair<char const, bool>, std::_Select1st<std::pair<char const, bool> >, std::less<char>, std::allocator<std::pair<char const, bool> > >::_M_insert(std::_Rb_tree_node_base*, std::_Rb_tree_node_base*, std::pair<char const, bool> const&)
	_ZNSt8_Rb_treeIcSt4pairIKcbESt10_Select1stIS2_ESt4lessIcESaIS2_EE9_M_insertEPSt18_Rb_tree_node_baseSA_RKS2_ @ 1528
;	std::_Rb_tree<char, std::pair<char const, bool>, std::_Select1st<std::pair<char const, bool> >, std::less<char>, std::allocator<std::pair<char const, bool> > >::_Rb_tree(std::less<char> const&, std::allocator<std::pair<char const, bool> > const&)
	_ZNSt8_Rb_treeIcSt4pairIKcbESt10_Select1stIS2_ESt4lessIcESaIS2_EEC1ERKS6_RKS7_ @ 1529
;	std::_Rb_tree<char, std::pair<char const, bool>, std::_Select1st<std::pair<char const, bool> >, std::less<char>, std::allocator<std::pair<char const, bool> > >::~_Rb_tree()
	_ZNSt8_Rb_treeIcSt4pairIKcbESt10_Select1stIS2_ESt4lessIcESaIS2_EED1Ev @ 1530
;	std::_Rb_tree<wchar_t, std::pair<wchar_t const, bool>, std::_Select1st<std::pair<wchar_t const, bool> >, std::less<wchar_t>, std::allocator<std::pair<wchar_t const, bool> > >::_M_get_node()
	_ZNSt8_Rb_treeIwSt4pairIKwbESt10_Select1stIS2_ESt4lessIwESaIS2_EE11_M_get_nodeEv @ 1531
;	std::_Rb_tree<wchar_t, std::pair<wchar_t const, bool>, std::_Select1st<std::pair<wchar_t const, bool> >, std::less<wchar_t>, std::allocator<std::pair<wchar_t const, bool> > >::_M_leftmost()
	_ZNSt8_Rb_treeIwSt4pairIKwbESt10_Select1stIS2_ESt4lessIwESaIS2_EE11_M_leftmostEv @ 1532
;	std::_Rb_tree<wchar_t, std::pair<wchar_t const, bool>, std::_Select1st<std::pair<wchar_t const, bool> >, std::less<wchar_t>, std::allocator<std::pair<wchar_t const, bool> > >::_M_put_node(std::_Rb_tree_node<std::pair<wchar_t const, bool> >*)
	_ZNSt8_Rb_treeIwSt4pairIKwbESt10_Select1stIS2_ESt4lessIwESaIS2_EE11_M_put_nodeEPSt13_Rb_tree_nodeIS2_E @ 1533
;	std::_Rb_tree<wchar_t, std::pair<wchar_t const, bool>, std::_Select1st<std::pair<wchar_t const, bool> >, std::less<wchar_t>, std::allocator<std::pair<wchar_t const, bool> > >::lower_bound(wchar_t const&)
	_ZNSt8_Rb_treeIwSt4pairIKwbESt10_Select1stIS2_ESt4lessIwESaIS2_EE11lower_boundERS1_ @ 1534
;	std::_Rb_tree<wchar_t, std::pair<wchar_t const, bool>, std::_Select1st<std::pair<wchar_t const, bool> >, std::less<wchar_t>, std::allocator<std::pair<wchar_t const, bool> > >::_M_rightmost()
	_ZNSt8_Rb_treeIwSt4pairIKwbESt10_Select1stIS2_ESt4lessIwESaIS2_EE12_M_rightmostEv @ 1535
;	std::_Rb_tree<wchar_t, std::pair<wchar_t const, bool>, std::_Select1st<std::pair<wchar_t const, bool> >, std::less<wchar_t>, std::allocator<std::pair<wchar_t const, bool> > >::destroy_node(std::_Rb_tree_node<std::pair<wchar_t const, bool> >*)
	_ZNSt8_Rb_treeIwSt4pairIKwbESt10_Select1stIS2_ESt4lessIwESaIS2_EE12destroy_nodeEPSt13_Rb_tree_nodeIS2_E @ 1536
;	std::_Rb_tree<wchar_t, std::pair<wchar_t const, bool>, std::_Select1st<std::pair<wchar_t const, bool> >, std::less<wchar_t>, std::allocator<std::pair<wchar_t const, bool> > >::_Rb_tree_impl<std::less<wchar_t>, false>::_Rb_tree_impl(std::allocator<std::_Rb_tree_node<std::pair<wchar_t const, bool> > > const&, std::less<wchar_t> const&)
	_ZNSt8_Rb_treeIwSt4pairIKwbESt10_Select1stIS2_ESt4lessIwESaIS2_EE13_Rb_tree_implIS6_Lb0EEC1ERKSaISt13_Rb_tree_nodeIS2_EERKS6_ @ 1537
;	std::_Rb_tree<wchar_t, std::pair<wchar_t const, bool>, std::_Select1st<std::pair<wchar_t const, bool> >, std::less<wchar_t>, std::allocator<std::pair<wchar_t const, bool> > >::_Rb_tree_impl<std::less<wchar_t>, false>::~_Rb_tree_impl()
	_ZNSt8_Rb_treeIwSt4pairIKwbESt10_Select1stIS2_ESt4lessIwESaIS2_EE13_Rb_tree_implIS6_Lb0EED1Ev @ 1538
;	std::_Rb_tree<wchar_t, std::pair<wchar_t const, bool>, std::_Select1st<std::pair<wchar_t const, bool> >, std::less<wchar_t>, std::allocator<std::pair<wchar_t const, bool> > >::insert_unique(std::pair<wchar_t const, bool> const&)
	_ZNSt8_Rb_treeIwSt4pairIKwbESt10_Select1stIS2_ESt4lessIwESaIS2_EE13insert_uniqueERKS2_ @ 1539
;	std::_Rb_tree<wchar_t, std::pair<wchar_t const, bool>, std::_Select1st<std::pair<wchar_t const, bool> >, std::less<wchar_t>, std::allocator<std::pair<wchar_t const, bool> > >::insert_unique(std::_Rb_tree_iterator<std::pair<wchar_t const, bool> >, std::pair<wchar_t const, bool> const&)
	_ZNSt8_Rb_treeIwSt4pairIKwbESt10_Select1stIS2_ESt4lessIwESaIS2_EE13insert_uniqueESt17_Rb_tree_iteratorIS2_ERKS2_ @ 1540
;	std::_Rb_tree<wchar_t, std::pair<wchar_t const, bool>, std::_Select1st<std::pair<wchar_t const, bool> >, std::less<wchar_t>, std::allocator<std::pair<wchar_t const, bool> > >::_M_create_node(std::pair<wchar_t const, bool> const&)
	_ZNSt8_Rb_treeIwSt4pairIKwbESt10_Select1stIS2_ESt4lessIwESaIS2_EE14_M_create_nodeERKS2_ @ 1541
;	std::_Rb_tree<wchar_t, std::pair<wchar_t const, bool>, std::_Select1st<std::pair<wchar_t const, bool> >, std::less<wchar_t>, std::allocator<std::pair<wchar_t const, bool> > >::end()
	_ZNSt8_Rb_treeIwSt4pairIKwbESt10_Select1stIS2_ESt4lessIwESaIS2_EE3endEv @ 1542
;	std::_Rb_tree<wchar_t, std::pair<wchar_t const, bool>, std::_Select1st<std::pair<wchar_t const, bool> >, std::less<wchar_t>, std::allocator<std::pair<wchar_t const, bool> > >::find(wchar_t const&)
	_ZNSt8_Rb_treeIwSt4pairIKwbESt10_Select1stIS2_ESt4lessIwESaIS2_EE4findERS1_ @ 1543
;	std::_Rb_tree<wchar_t, std::pair<wchar_t const, bool>, std::_Select1st<std::pair<wchar_t const, bool> >, std::less<wchar_t>, std::allocator<std::pair<wchar_t const, bool> > >::begin()
	_ZNSt8_Rb_treeIwSt4pairIKwbESt10_Select1stIS2_ESt4lessIwESaIS2_EE5beginEv @ 1544
;	std::_Rb_tree<wchar_t, std::pair<wchar_t const, bool>, std::_Select1st<std::pair<wchar_t const, bool> >, std::less<wchar_t>, std::allocator<std::pair<wchar_t const, bool> > >::_M_end()
	_ZNSt8_Rb_treeIwSt4pairIKwbESt10_Select1stIS2_ESt4lessIwESaIS2_EE6_M_endEv @ 1545
;	std::_Rb_tree<wchar_t, std::pair<wchar_t const, bool>, std::_Select1st<std::pair<wchar_t const, bool> >, std::less<wchar_t>, std::allocator<std::pair<wchar_t const, bool> > >::_S_key(std::_Rb_tree_node<std::pair<wchar_t const, bool> > const*)
	_ZNSt8_Rb_treeIwSt4pairIKwbESt10_Select1stIS2_ESt4lessIwESaIS2_EE6_S_keyEPKSt13_Rb_tree_nodeIS2_E @ 1546
;	std::_Rb_tree<wchar_t, std::pair<wchar_t const, bool>, std::_Select1st<std::pair<wchar_t const, bool> >, std::less<wchar_t>, std::allocator<std::pair<wchar_t const, bool> > >::_S_key(std::_Rb_tree_node_base const*)
	_ZNSt8_Rb_treeIwSt4pairIKwbESt10_Select1stIS2_ESt4lessIwESaIS2_EE6_S_keyEPKSt18_Rb_tree_node_base @ 1547
;	std::_Rb_tree<wchar_t, std::pair<wchar_t const, bool>, std::_Select1st<std::pair<wchar_t const, bool> >, std::less<wchar_t>, std::allocator<std::pair<wchar_t const, bool> > >::_S_left(std::_Rb_tree_node_base const*)
	_ZNSt8_Rb_treeIwSt4pairIKwbESt10_Select1stIS2_ESt4lessIwESaIS2_EE7_S_leftEPKSt18_Rb_tree_node_base @ 1548
;	std::_Rb_tree<wchar_t, std::pair<wchar_t const, bool>, std::_Select1st<std::pair<wchar_t const, bool> >, std::less<wchar_t>, std::allocator<std::pair<wchar_t const, bool> > >::_S_left(std::_Rb_tree_node_base*)
	_ZNSt8_Rb_treeIwSt4pairIKwbESt10_Select1stIS2_ESt4lessIwESaIS2_EE7_S_leftEPSt18_Rb_tree_node_base @ 1549
;	std::_Rb_tree<wchar_t, std::pair<wchar_t const, bool>, std::_Select1st<std::pair<wchar_t const, bool> >, std::less<wchar_t>, std::allocator<std::pair<wchar_t const, bool> > >::_M_begin()
	_ZNSt8_Rb_treeIwSt4pairIKwbESt10_Select1stIS2_ESt4lessIwESaIS2_EE8_M_beginEv @ 1550
;	std::_Rb_tree<wchar_t, std::pair<wchar_t const, bool>, std::_Select1st<std::pair<wchar_t const, bool> >, std::less<wchar_t>, std::allocator<std::pair<wchar_t const, bool> > >::_M_erase(std::_Rb_tree_node<std::pair<wchar_t const, bool> >*)
	_ZNSt8_Rb_treeIwSt4pairIKwbESt10_Select1stIS2_ESt4lessIwESaIS2_EE8_M_eraseEPSt13_Rb_tree_nodeIS2_E @ 1551
;	std::_Rb_tree<wchar_t, std::pair<wchar_t const, bool>, std::_Select1st<std::pair<wchar_t const, bool> >, std::less<wchar_t>, std::allocator<std::pair<wchar_t const, bool> > >::_S_right(std::_Rb_tree_node_base const*)
	_ZNSt8_Rb_treeIwSt4pairIKwbESt10_Select1stIS2_ESt4lessIwESaIS2_EE8_S_rightEPKSt18_Rb_tree_node_base @ 1552
;	std::_Rb_tree<wchar_t, std::pair<wchar_t const, bool>, std::_Select1st<std::pair<wchar_t const, bool> >, std::less<wchar_t>, std::allocator<std::pair<wchar_t const, bool> > >::_S_right(std::_Rb_tree_node_base*)
	_ZNSt8_Rb_treeIwSt4pairIKwbESt10_Select1stIS2_ESt4lessIwESaIS2_EE8_S_rightEPSt18_Rb_tree_node_base @ 1553
;	std::_Rb_tree<wchar_t, std::pair<wchar_t const, bool>, std::_Select1st<std::pair<wchar_t const, bool> >, std::less<wchar_t>, std::allocator<std::pair<wchar_t const, bool> > >::_S_value(std::_Rb_tree_node<std::pair<wchar_t const, bool> > const*)
	_ZNSt8_Rb_treeIwSt4pairIKwbESt10_Select1stIS2_ESt4lessIwESaIS2_EE8_S_valueEPKSt13_Rb_tree_nodeIS2_E @ 1554
;	std::_Rb_tree<wchar_t, std::pair<wchar_t const, bool>, std::_Select1st<std::pair<wchar_t const, bool> >, std::less<wchar_t>, std::allocator<std::pair<wchar_t const, bool> > >::_S_value(std::_Rb_tree_node_base const*)
	_ZNSt8_Rb_treeIwSt4pairIKwbESt10_Select1stIS2_ESt4lessIwESaIS2_EE8_S_valueEPKSt18_Rb_tree_node_base @ 1555
;	std::_Rb_tree<wchar_t, std::pair<wchar_t const, bool>, std::_Select1st<std::pair<wchar_t const, bool> >, std::less<wchar_t>, std::allocator<std::pair<wchar_t const, bool> > >::_M_insert(std::_Rb_tree_node_base*, std::_Rb_tree_node_base*, std::pair<wchar_t const, bool> const&)
	_ZNSt8_Rb_treeIwSt4pairIKwbESt10_Select1stIS2_ESt4lessIwESaIS2_EE9_M_insertEPSt18_Rb_tree_node_baseSA_RKS2_ @ 1556
;	std::_Rb_tree<wchar_t, std::pair<wchar_t const, bool>, std::_Select1st<std::pair<wchar_t const, bool> >, std::less<wchar_t>, std::allocator<std::pair<wchar_t const, bool> > >::_Rb_tree(std::less<wchar_t> const&, std::allocator<std::pair<wchar_t const, bool> > const&)
	_ZNSt8_Rb_treeIwSt4pairIKwbESt10_Select1stIS2_ESt4lessIwESaIS2_EEC1ERKS6_RKS7_ @ 1557
;	std::_Rb_tree<wchar_t, std::pair<wchar_t const, bool>, std::_Select1st<std::pair<wchar_t const, bool> >, std::less<wchar_t>, std::allocator<std::pair<wchar_t const, bool> > >::~_Rb_tree()
	_ZNSt8_Rb_treeIwSt4pairIKwbESt10_Select1stIS2_ESt4lessIwESaIS2_EED1Ev @ 1558
;	void std::_Construct<std::basic_string<wchar_t, std::char_traits<wchar_t>, std::allocator<wchar_t> >, std::basic_string<wchar_t, std::char_traits<wchar_t>, std::allocator<wchar_t> > >(std::basic_string<wchar_t, std::char_traits<wchar_t>, std::allocator<wchar_t> >*, std::basic_string<wchar_t, std::char_traits<wchar_t>, std::allocator<wchar_t> > const&)
	_ZSt10_ConstructISbIwSt11char_traitsIwESaIwEES3_EvPT_RKT0_ @ 1559
;	void std::_Construct<std::string, std::string>(std::string*, std::string const&)
	_ZSt10_ConstructISsSsEvPT_RKT0_ @ 1560
;	void std::_Construct<std::pair<NFANode* const, bool>, std::pair<NFANode* const, bool> >(std::pair<NFANode* const, bool>*, std::pair<NFANode* const, bool> const&)
	_ZSt10_ConstructISt4pairIKP7NFANodebES4_EvPT_RKT0_ @ 1561
;	void std::_Construct<std::pair<NFAUNode* const, bool>, std::pair<NFAUNode* const, bool> >(std::pair<NFAUNode* const, bool>*, std::pair<NFAUNode* const, bool> const&)
	_ZSt10_ConstructISt4pairIKP8NFAUNodebES4_EvPT_RKT0_ @ 1562
;	void std::_Construct<std::pair<std::basic_string<wchar_t, std::char_traits<wchar_t>, std::allocator<wchar_t> > const, WCPattern*>, std::pair<std::basic_string<wchar_t, std::char_traits<wchar_t>, std::allocator<wchar_t> > const, WCPattern*> >(std::pair<std::basic_string<wchar_t, std::char_traits<wchar_t>, std::allocator<wchar_t> > const, WCPattern*>*, std::pair<std::basic_string<wchar_t, std::char_traits<wchar_t>, std::allocator<wchar_t> > const, WCPattern*> const&)
	_ZSt10_ConstructISt4pairIKSbIwSt11char_traitsIwESaIwEEP9WCPatternES8_EvPT_RKT0_ @ 1563
;	void std::_Construct<std::pair<std::basic_string<wchar_t, std::char_traits<wchar_t>, std::allocator<wchar_t> > const, std::pair<std::basic_string<wchar_t, std::char_traits<wchar_t>, std::allocator<wchar_t> >, unsigned long> >, std::pair<std::basic_string<wchar_t, std::char_traits<wchar_t>, std::allocator<wchar_t> > const, std::pair<std::basic_string<wchar_t, std::char_traits<wchar_t>, std::allocator<wchar_t> >, unsigned long> > >(std::pair<std::basic_string<wchar_t, std::char_traits<wchar_t>, std::allocator<wchar_t> > const, std::pair<std::basic_string<wchar_t, std::char_traits<wchar_t>, std::allocator<wchar_t> >, unsigned long> >*, std::pair<std::basic_string<wchar_t, std::char_traits<wchar_t>, std::allocator<wchar_t> > const, std::pair<std::basic_string<wchar_t, std::char_traits<wchar_t>, std::allocator<wchar_t> >, unsigned long> > const&)
	_ZSt10_ConstructISt4pairIKSbIwSt11char_traitsIwESaIwEES0_IS4_mEES7_EvPT_RKT0_ @ 1564
;	void std::_Construct<std::pair<std::string const, Pattern*>, std::pair<std::string const, Pattern*> >(std::pair<std::string const, Pattern*>*, std::pair<std::string const, Pattern*> const&)
	_ZSt10_ConstructISt4pairIKSsP7PatternES4_EvPT_RKT0_ @ 1565
;	void std::_Construct<std::pair<std::string const, std::pair<std::string, unsigned long> >, std::pair<std::string const, std::pair<std::string, unsigned long> > >(std::pair<std::string const, std::pair<std::string, unsigned long> >*, std::pair<std::string const, std::pair<std::string, unsigned long> > const&)
	_ZSt10_ConstructISt4pairIKSsS0_ISsmEES3_EvPT_RKT0_ @ 1566
;	void std::_Construct<std::pair<char const, bool>, std::pair<char const, bool> >(std::pair<char const, bool>*, std::pair<char const, bool> const&)
	_ZSt10_ConstructISt4pairIKcbES2_EvPT_RKT0_ @ 1567
;	void std::_Construct<std::pair<wchar_t const, bool>, std::pair<wchar_t const, bool> >(std::pair<wchar_t const, bool>*, std::pair<wchar_t const, bool> const&)
	_ZSt10_ConstructISt4pairIKwbES2_EvPT_RKT0_ @ 1568
;	__gnu_cxx::__normal_iterator<std::basic_string<wchar_t, std::char_traits<wchar_t>, std::allocator<wchar_t> >*, std::vector<std::basic_string<wchar_t, std::char_traits<wchar_t>, std::allocator<wchar_t> >, std::allocator<std::basic_string<wchar_t, std::char_traits<wchar_t>, std::allocator<wchar_t> > > > > std::__copy_ni1<__gnu_cxx::__normal_iterator<std::basic_string<wchar_t, std::char_traits<wchar_t>, std::allocator<wchar_t> > const*, std::vector<std::basic_string<wchar_t, std::char_traits<wchar_t>, std::allocator<wchar_t> >, std::allocator<std::basic_string<wchar_t, std::char_traits<wchar_t>, std::allocator<wchar_t> > > > >, __gnu_cxx::__normal_iterator<std::basic_string<wchar_t, std::char_traits<wchar_t>, std::allocator<wchar_t> >*, std::vector<std::basic_string<wchar_t, std::char_traits<wchar_t>, std::allocator<wchar_t> >, std::allocator<std::basic_string<wchar_t, std::char_traits<wchar_t>, std::allocator<wchar_t> > > > > >(__gnu_cxx::__normal_iterator<std::basic_string<wchar_t, std::char_traits<wchar_t>, std::allocator<wchar_t> > const*, std::vector<std::basic_string<wchar_t, std::char_traits<wchar_t>, std::allocator<wchar_t> >, std::allocator<std::basic_string<wchar_t, std::char_traits<wchar_t>, std::allocator<wchar_t> > > > >, __gnu_cxx::__normal_iterator<std::basic_string<wchar_t, std::char_traits<wchar_t>, std::allocator<wchar_t> > const*, std::vector<std::basic_string<wchar_t, std::char_traits<wchar_t>, std::allocator<wchar_t> >, std::allocator<std::basic_string<wchar_t, std::char_traits<wchar_t>, std::allocator<wchar_t> > > > >, __gnu_cxx::__normal_iterator<std::basic_string<wchar_t, std::char_traits<wchar_t>, std::allocator<wchar_t> >*, std::vector<std::basic_string<wchar_t, std::char_traits<wchar_t>, std::allocator<wchar_t> >, std::allocator<std::basic_string<wchar_t, std::char_traits<wchar_t>, std::allocator<wchar_t> > > > >, __true_type)
	_ZSt10__copy_ni1IN9__gnu_cxx17__normal_iteratorIPKSbIwSt11char_traitsIwESaIwEESt6vectorIS5_SaIS5_EEEENS1_IPS5_SA_EEET0_T_SF_SE_11__true_type @ 1569
;	std::basic_string<wchar_t, std::char_traits<wchar_t>, std::allocator<wchar_t> >* std::__copy_ni1<__gnu_cxx::__normal_iterator<std::basic_string<wchar_t, std::char_traits<wchar_t>, std::allocator<wchar_t> > const*, std::vector<std::basic_string<wchar_t, std::char_traits<wchar_t>, std::allocator<wchar_t> >, std::allocator<std::basic_string<wchar_t, std::char_traits<wchar_t>, std::allocator<wchar_t> > > > >, std::basic_string<wchar_t, std::char_traits<wchar_t>, std::allocator<wchar_t> >*>(__gnu_cxx::__normal_iterator<std::basic_string<wchar_t, std::char_traits<wchar_t>, std::allocator<wchar_t> > const*, std::vector<std::basic_string<wchar_t, std::char_traits<wchar_t>, std::allocator<wchar_t> >, std::allocator<std::basic_string<wchar_t, std::char_traits<wchar_t>, std::allocator<wchar_t> > > > >, __gnu_cxx::__normal_iterator<std::basic_string<wchar_t, std::char_traits<wchar_t>, std::allocator<wchar_t> > const*, std::vector<std::basic_string<wchar_t, std::char_traits<wchar_t>, std::allocator<wchar_t> >, std::allocator<std::basic_string<wchar_t, std::char_traits<wchar_t>, std::allocator<wchar_t> > > > >, std::basic_string<wchar_t, std::char_traits<wchar_t>, std::allocator<wchar_t> >*, __true_type)
	_ZSt10__copy_ni1IN9__gnu_cxx17__normal_iteratorIPKSbIwSt11char_traitsIwESaIwEESt6vectorIS5_SaIS5_EEEEPS5_ET0_T_SE_SD_11__true_type @ 1570
;	__gnu_cxx::__normal_iterator<std::string*, std::vector<std::string, std::allocator<std::string> > > std::__copy_ni1<__gnu_cxx::__normal_iterator<std::string const*, std::vector<std::string, std::allocator<std::string> > >, __gnu_cxx::__normal_iterator<std::string*, std::vector<std::string, std::allocator<std::string> > > >(__gnu_cxx::__normal_iterator<std::string const*, std::vector<std::string, std::allocator<std::string> > >, __gnu_cxx::__normal_iterator<std::string const*, std::vector<std::string, std::allocator<std::string> > >, __gnu_cxx::__normal_iterator<std::string*, std::vector<std::string, std::allocator<std::string> > >, __true_type)
	_ZSt10__copy_ni1IN9__gnu_cxx17__normal_iteratorIPKSsSt6vectorISsSaISsEEEENS1_IPSsS6_EEET0_T_SB_SA_11__true_type @ 1571
;	std::string* std::__copy_ni1<__gnu_cxx::__normal_iterator<std::string const*, std::vector<std::string, std::allocator<std::string> > >, std::string*>(__gnu_cxx::__normal_iterator<std::string const*, std::vector<std::string, std::allocator<std::string> > >, __gnu_cxx::__normal_iterator<std::string const*, std::vector<std::string, std::allocator<std::string> > >, std::string*, __true_type)
	_ZSt10__copy_ni1IN9__gnu_cxx17__normal_iteratorIPKSsSt6vectorISsSaISsEEEEPSsET0_T_SA_S9_11__true_type @ 1572
;	char* std::__copy_ni1<__gnu_cxx::__normal_iterator<char*, std::string>, char*>(__gnu_cxx::__normal_iterator<char*, std::string>, __gnu_cxx::__normal_iterator<char*, std::string>, char*, __true_type)
	_ZSt10__copy_ni1IN9__gnu_cxx17__normal_iteratorIPcSsEES2_ET0_T_S5_S4_11__true_type @ 1573
;	wchar_t* std::__copy_ni1<__gnu_cxx::__normal_iterator<wchar_t*, std::basic_string<wchar_t, std::char_traits<wchar_t>, std::allocator<wchar_t> > >, wchar_t*>(__gnu_cxx::__normal_iterator<wchar_t*, std::basic_string<wchar_t, std::char_traits<wchar_t>, std::allocator<wchar_t> > >, __gnu_cxx::__normal_iterator<wchar_t*, std::basic_string<wchar_t, std::char_traits<wchar_t>, std::allocator<wchar_t> > >, wchar_t*, __true_type)
	_ZSt10__copy_ni1IN9__gnu_cxx17__normal_iteratorIPwSbIwSt11char_traitsIwESaIwEEEES2_ET0_T_S9_S8_11__true_type @ 1574
;	__gnu_cxx::__normal_iterator<std::basic_string<wchar_t, std::char_traits<wchar_t>, std::allocator<wchar_t> >*, std::vector<std::basic_string<wchar_t, std::char_traits<wchar_t>, std::allocator<wchar_t> >, std::allocator<std::basic_string<wchar_t, std::char_traits<wchar_t>, std::allocator<wchar_t> > > > > std::__copy_ni2<std::basic_string<wchar_t, std::char_traits<wchar_t>, std::allocator<wchar_t> > const*, __gnu_cxx::__normal_iterator<std::basic_string<wchar_t, std::char_traits<wchar_t>, std::allocator<wchar_t> >*, std::vector<std::basic_string<wchar_t, std::char_traits<wchar_t>, std::allocator<wchar_t> >, std::allocator<std::basic_string<wchar_t, std::char_traits<wchar_t>, std::allocator<wchar_t> > > > > >(std::basic_string<wchar_t, std::char_traits<wchar_t>, std::allocator<wchar_t> > const*, std::basic_string<wchar_t, std::char_traits<wchar_t>, std::allocator<wchar_t> > const*, __gnu_cxx::__normal_iterator<std::basic_string<wchar_t, std::char_traits<wchar_t>, std::allocator<wchar_t> >*, std::vector<std::basic_string<wchar_t, std::char_traits<wchar_t>, std::allocator<wchar_t> >, std::allocator<std::basic_string<wchar_t, std::char_traits<wchar_t>, std::allocator<wchar_t> > > > >, __true_type)
	_ZSt10__copy_ni2IPKSbIwSt11char_traitsIwESaIwEEN9__gnu_cxx17__normal_iteratorIPS3_St6vectorIS3_SaIS3_EEEEET0_T_SE_SD_11__true_type @ 1575
;	std::basic_string<wchar_t, std::char_traits<wchar_t>, std::allocator<wchar_t> >* std::__copy_ni2<std::basic_string<wchar_t, std::char_traits<wchar_t>, std::allocator<wchar_t> > const*, std::basic_string<wchar_t, std::char_traits<wchar_t>, std::allocator<wchar_t> >*>(std::basic_string<wchar_t, std::char_traits<wchar_t>, std::allocator<wchar_t> > const*, std::basic_string<wchar_t, std::char_traits<wchar_t>, std::allocator<wchar_t> > const*, std::basic_string<wchar_t, std::char_traits<wchar_t>, std::allocator<wchar_t> >*, __false_type)
	_ZSt10__copy_ni2IPKSbIwSt11char_traitsIwESaIwEEPS3_ET0_T_S8_S7_12__false_type @ 1576
;	__gnu_cxx::__normal_iterator<std::string*, std::vector<std::string, std::allocator<std::string> > > std::__copy_ni2<std::string const*, __gnu_cxx::__normal_iterator<std::string*, std::vector<std::string, std::allocator<std::string> > > >(std::string const*, std::string const*, __gnu_cxx::__normal_iterator<std::string*, std::vector<std::string, std::allocator<std::string> > >, __true_type)
	_ZSt10__copy_ni2IPKSsN9__gnu_cxx17__normal_iteratorIPSsSt6vectorISsSaISsEEEEET0_T_SA_S9_11__true_type @ 1577
;	std::string* std::__copy_ni2<std::string const*, std::string*>(std::string const*, std::string const*, std::string*, __false_type)
	_ZSt10__copy_ni2IPKSsPSsET0_T_S4_S3_12__false_type @ 1578
;	char* std::__copy_ni2<char*, char*>(char*, char*, char*, __false_type)
	_ZSt10__copy_ni2IPcS0_ET0_T_S2_S1_12__false_type @ 1579
;	wchar_t* std::__copy_ni2<wchar_t*, wchar_t*>(wchar_t*, wchar_t*, wchar_t*, __false_type)
	_ZSt10__copy_ni2IPwS0_ET0_T_S2_S1_12__false_type @ 1580
;	std::iterator_traits<wchar_t const*>::difference_type std::__distance<wchar_t const*>(wchar_t const*, wchar_t const*, std::random_access_iterator_tag)
	_ZSt10__distanceIPKwENSt15iterator_traitsIT_E15difference_typeES3_S3_St26random_access_iterator_tag @ 1581
;	std::iterator_traits<wchar_t*>::difference_type std::__distance<wchar_t*>(wchar_t*, wchar_t*, std::random_access_iterator_tag)
	_ZSt10__distanceIPwENSt15iterator_traitsIT_E15difference_typeES2_S2_St26random_access_iterator_tag @ 1582
;	void std::__pop_heap<__gnu_cxx::__normal_iterator<char*, std::string>, char>(__gnu_cxx::__normal_iterator<char*, std::string>, __gnu_cxx::__normal_iterator<char*, std::string>, __gnu_cxx::__normal_iterator<char*, std::string>, char)
	_ZSt10__pop_heapIN9__gnu_cxx17__normal_iteratorIPcSsEEcEvT_S4_S4_T0_ @ 1583
;	void std::__pop_heap<__gnu_cxx::__normal_iterator<wchar_t*, std::basic_string<wchar_t, std::char_traits<wchar_t>, std::allocator<wchar_t> > >, wchar_t>(__gnu_cxx::__normal_iterator<wchar_t*, std::basic_string<wchar_t, std::char_traits<wchar_t>, std::allocator<wchar_t> > >, __gnu_cxx::__normal_iterator<wchar_t*, std::basic_string<wchar_t, std::char_traits<wchar_t>, std::allocator<wchar_t> > >, __gnu_cxx::__normal_iterator<wchar_t*, std::basic_string<wchar_t, std::char_traits<wchar_t>, std::allocator<wchar_t> > >, wchar_t)
	_ZSt10__pop_heapIN9__gnu_cxx17__normal_iteratorIPwSbIwSt11char_traitsIwESaIwEEEEwEvT_S8_S8_T0_ @ 1584
;	std::basic_string<wchar_t, std::char_traits<wchar_t>, std::allocator<wchar_t> >* std::__copy_aux2<std::basic_string<wchar_t, std::char_traits<wchar_t>, std::allocator<wchar_t> > const*, std::basic_string<wchar_t, std::char_traits<wchar_t>, std::allocator<wchar_t> >*>(std::basic_string<wchar_t, std::char_traits<wchar_t>, std::allocator<wchar_t> > const*, std::basic_string<wchar_t, std::char_traits<wchar_t>, std::allocator<wchar_t> > const*, std::basic_string<wchar_t, std::char_traits<wchar_t>, std::allocator<wchar_t> >*, __false_type)
	_ZSt11__copy_aux2IPKSbIwSt11char_traitsIwESaIwEEPS3_ET0_T_S8_S7_12__false_type @ 1585
;	std::string* std::__copy_aux2<std::string const*, std::string*>(std::string const*, std::string const*, std::string*, __false_type)
	_ZSt11__copy_aux2IPKSsPSsET0_T_S4_S3_12__false_type @ 1586
;	char* std::__copy_aux2<char>(char*, char*, char*, __true_type)
	_ZSt11__copy_aux2IcEPT_S1_S1_S1_11__true_type @ 1587
;	wchar_t* std::__copy_aux2<wchar_t>(wchar_t*, wchar_t*, wchar_t*, __true_type)
	_ZSt11__copy_aux2IwEPT_S1_S1_S1_11__true_type @ 1588
;	void std::__push_heap<__gnu_cxx::__normal_iterator<char*, std::string>, int, char>(__gnu_cxx::__normal_iterator<char*, std::string>, int, int, char)
	_ZSt11__push_heapIN9__gnu_cxx17__normal_iteratorIPcSsEEicEvT_T0_S5_T1_ @ 1589
;	void std::__push_heap<__gnu_cxx::__normal_iterator<wchar_t*, std::basic_string<wchar_t, std::char_traits<wchar_t>, std::allocator<wchar_t> > >, int, wchar_t>(__gnu_cxx::__normal_iterator<wchar_t*, std::basic_string<wchar_t, std::char_traits<wchar_t>, std::allocator<wchar_t> > >, int, int, wchar_t)
	_ZSt11__push_heapIN9__gnu_cxx17__normal_iteratorIPwSbIwSt11char_traitsIwESaIwEEEEiwEvT_T0_S9_T1_ @ 1590
;	void std::partial_sort<__gnu_cxx::__normal_iterator<char*, std::string> >(__gnu_cxx::__normal_iterator<char*, std::string>, __gnu_cxx::__normal_iterator<char*, std::string>, __gnu_cxx::__normal_iterator<char*, std::string>)
	_ZSt12partial_sortIN9__gnu_cxx17__normal_iteratorIPcSsEEEvT_S4_S4_ @ 1591
;	void std::partial_sort<__gnu_cxx::__normal_iterator<wchar_t*, std::basic_string<wchar_t, std::char_traits<wchar_t>, std::allocator<wchar_t> > > >(__gnu_cxx::__normal_iterator<wchar_t*, std::basic_string<wchar_t, std::char_traits<wchar_t>, std::allocator<wchar_t> > >, __gnu_cxx::__normal_iterator<wchar_t*, std::basic_string<wchar_t, std::char_traits<wchar_t>, std::allocator<wchar_t> > >, __gnu_cxx::__normal_iterator<wchar_t*, std::basic_string<wchar_t, std::char_traits<wchar_t>, std::allocator<wchar_t> > >)
	_ZSt12partial_sortIN9__gnu_cxx17__normal_iteratorIPwSbIwSt11char_traitsIwESaIwEEEEEvT_S8_S8_ @ 1592
;	void std::__adjust_heap<__gnu_cxx::__normal_iterator<char*, std::string>, int, char>(__gnu_cxx::__normal_iterator<char*, std::string>, int, int, char)
	_ZSt13__adjust_heapIN9__gnu_cxx17__normal_iteratorIPcSsEEicEvT_T0_S5_T1_ @ 1593
;	void std::__adjust_heap<__gnu_cxx::__normal_iterator<wchar_t*, std::basic_string<wchar_t, std::char_traits<wchar_t>, std::allocator<wchar_t> > >, int, wchar_t>(__gnu_cxx::__normal_iterator<wchar_t*, std::basic_string<wchar_t, std::char_traits<wchar_t>, std::allocator<wchar_t> > >, int, int, wchar_t)
	_ZSt13__adjust_heapIN9__gnu_cxx17__normal_iteratorIPwSbIwSt11char_traitsIwESaIwEEEEiwEvT_T0_S9_T1_ @ 1594
;	void std::__destroy_aux<__gnu_cxx::__normal_iterator<std::basic_string<wchar_t, std::char_traits<wchar_t>, std::allocator<wchar_t> >*, std::vector<std::basic_string<wchar_t, std::char_traits<wchar_t>, std::allocator<wchar_t> >, std::allocator<std::basic_string<wchar_t, std::char_traits<wchar_t>, std::allocator<wchar_t> > > > > >(__gnu_cxx::__normal_iterator<std::basic_string<wchar_t, std::char_traits<wchar_t>, std::allocator<wchar_t> >*, std::vector<std::basic_string<wchar_t, std::char_traits<wchar_t>, std::allocator<wchar_t> >, std::allocator<std::basic_string<wchar_t, std::char_traits<wchar_t>, std::allocator<wchar_t> > > > >, __gnu_cxx::__normal_iterator<std::basic_string<wchar_t, std::char_traits<wchar_t>, std::allocator<wchar_t> >*, std::vector<std::basic_string<wchar_t, std::char_traits<wchar_t>, std::allocator<wchar_t> >, std::allocator<std::basic_string<wchar_t, std::char_traits<wchar_t>, std::allocator<wchar_t> > > > >, __false_type)
	_ZSt13__destroy_auxIN9__gnu_cxx17__normal_iteratorIPSbIwSt11char_traitsIwESaIwEESt6vectorIS5_SaIS5_EEEEEvT_SB_12__false_type @ 1595
;	void std::__destroy_aux<__gnu_cxx::__normal_iterator<std::string*, std::vector<std::string, std::allocator<std::string> > > >(__gnu_cxx::__normal_iterator<std::string*, std::vector<std::string, std::allocator<std::string> > >, __gnu_cxx::__normal_iterator<std::string*, std::vector<std::string, std::allocator<std::string> > >, __false_type)
	_ZSt13__destroy_auxIN9__gnu_cxx17__normal_iteratorIPSsSt6vectorISsSaISsEEEEEvT_S7_12__false_type @ 1596
;	void std::__destroy_aux<std::basic_string<wchar_t, std::char_traits<wchar_t>, std::allocator<wchar_t> >*>(std::basic_string<wchar_t, std::char_traits<wchar_t>, std::allocator<wchar_t> >*, std::basic_string<wchar_t, std::char_traits<wchar_t>, std::allocator<wchar_t> >*, __false_type)
	_ZSt13__destroy_auxIPSbIwSt11char_traitsIwESaIwEEEvT_S5_12__false_type @ 1597
;	void std::__destroy_aux<std::string*>(std::string*, std::string*, __false_type)
	_ZSt13__destroy_auxIPSsEvT_S1_12__false_type @ 1598
;	__gnu_cxx::__normal_iterator<std::basic_string<wchar_t, std::char_traits<wchar_t>, std::allocator<wchar_t> >*, std::vector<std::basic_string<wchar_t, std::char_traits<wchar_t>, std::allocator<wchar_t> >, std::allocator<std::basic_string<wchar_t, std::char_traits<wchar_t>, std::allocator<wchar_t> > > > > std::copy_backward<__gnu_cxx::__normal_iterator<std::basic_string<wchar_t, std::char_traits<wchar_t>, std::allocator<wchar_t> >*, std::vector<std::basic_string<wchar_t, std::char_traits<wchar_t>, std::allocator<wchar_t> >, std::allocator<std::basic_string<wchar_t, std::char_traits<wchar_t>, std::allocator<wchar_t> > > > >, __gnu_cxx::__normal_iterator<std::basic_string<wchar_t, std::char_traits<wchar_t>, std::allocator<wchar_t> >*, std::vector<std::basic_string<wchar_t, std::char_traits<wchar_t>, std::allocator<wchar_t> >, std::allocator<std::basic_string<wchar_t, std::char_traits<wchar_t>, std::allocator<wchar_t> > > > > >(__gnu_cxx::__normal_iterator<std::basic_string<wchar_t, std::char_traits<wchar_t>, std::allocator<wchar_t> >*, std::vector<std::basic_string<wchar_t, std::char_traits<wchar_t>, std::allocator<wchar_t> >, std::allocator<std::basic_string<wchar_t, std::char_traits<wchar_t>, std::allocator<wchar_t> > > > >, __gnu_cxx::__normal_iterator<std::basic_string<wchar_t, std::char_traits<wchar_t>, std::allocator<wchar_t> >*, std::vector<std::basic_string<wchar_t, std::char_traits<wchar_t>, std::allocator<wchar_t> >, std::allocator<std::basic_string<wchar_t, std::char_traits<wchar_t>, std::allocator<wchar_t> > > > >, __gnu_cxx::__normal_iterator<std::basic_string<wchar_t, std::char_traits<wchar_t>, std::allocator<wchar_t> >*, std::vector<std::basic_string<wchar_t, std::char_traits<wchar_t>, std::allocator<wchar_t> >, std::allocator<std::basic_string<wchar_t, std::char_traits<wchar_t>, std::allocator<wchar_t> > > > >)
	_ZSt13copy_backwardIN9__gnu_cxx17__normal_iteratorIPSbIwSt11char_traitsIwESaIwEESt6vectorIS5_SaIS5_EEEESA_ET0_T_SC_SB_ @ 1599
;	__gnu_cxx::__normal_iterator<std::string*, std::vector<std::string, std::allocator<std::string> > > std::copy_backward<__gnu_cxx::__normal_iterator<std::string*, std::vector<std::string, std::allocator<std::string> > >, __gnu_cxx::__normal_iterator<std::string*, std::vector<std::string, std::allocator<std::string> > > >(__gnu_cxx::__normal_iterator<std::string*, std::vector<std::string, std::allocator<std::string> > >, __gnu_cxx::__normal_iterator<std::string*, std::vector<std::string, std::allocator<std::string> > >, __gnu_cxx::__normal_iterator<std::string*, std::vector<std::string, std::allocator<std::string> > >)
	_ZSt13copy_backwardIN9__gnu_cxx17__normal_iteratorIPSsSt6vectorISsSaISsEEEES6_ET0_T_S8_S7_ @ 1600
;	__gnu_cxx::__normal_iterator<char*, std::string> std::copy_backward<__gnu_cxx::__normal_iterator<char*, std::string>, __gnu_cxx::__normal_iterator<char*, std::string> >(__gnu_cxx::__normal_iterator<char*, std::string>, __gnu_cxx::__normal_iterator<char*, std::string>, __gnu_cxx::__normal_iterator<char*, std::string>)
	_ZSt13copy_backwardIN9__gnu_cxx17__normal_iteratorIPcSsEES3_ET0_T_S5_S4_ @ 1601
;	__gnu_cxx::__normal_iterator<wchar_t*, std::basic_string<wchar_t, std::char_traits<wchar_t>, std::allocator<wchar_t> > > std::copy_backward<__gnu_cxx::__normal_iterator<wchar_t*, std::basic_string<wchar_t, std::char_traits<wchar_t>, std::allocator<wchar_t> > >, __gnu_cxx::__normal_iterator<wchar_t*, std::basic_string<wchar_t, std::char_traits<wchar_t>, std::allocator<wchar_t> > > >(__gnu_cxx::__normal_iterator<wchar_t*, std::basic_string<wchar_t, std::char_traits<wchar_t>, std::allocator<wchar_t> > >, __gnu_cxx::__normal_iterator<wchar_t*, std::basic_string<wchar_t, std::char_traits<wchar_t>, std::allocator<wchar_t> > >, __gnu_cxx::__normal_iterator<wchar_t*, std::basic_string<wchar_t, std::char_traits<wchar_t>, std::allocator<wchar_t> > >)
	_ZSt13copy_backwardIN9__gnu_cxx17__normal_iteratorIPwSbIwSt11char_traitsIwESaIwEEEES7_ET0_T_S9_S8_ @ 1602
;	char* std::__copy_trivial<char>(char const*, char const*, char*)
	_ZSt14__copy_trivialIcEPT_PKS0_S3_S1_ @ 1603
;	wchar_t* std::__copy_trivial<wchar_t>(wchar_t const*, wchar_t const*, wchar_t*)
	_ZSt14__copy_trivialIwEPT_PKS0_S3_S1_ @ 1604
;	std::basic_string<wchar_t, std::char_traits<wchar_t>, std::allocator<wchar_t> >* std::__copy_backward<std::basic_string<wchar_t, std::char_traits<wchar_t>, std::allocator<wchar_t> >*, std::basic_string<wchar_t, std::char_traits<wchar_t>, std::allocator<wchar_t> >*>(std::basic_string<wchar_t, std::char_traits<wchar_t>, std::allocator<wchar_t> >*, std::basic_string<wchar_t, std::char_traits<wchar_t>, std::allocator<wchar_t> >*, std::basic_string<wchar_t, std::char_traits<wchar_t>, std::allocator<wchar_t> >*, std::random_access_iterator_tag)
	_ZSt15__copy_backwardIPSbIwSt11char_traitsIwESaIwEES4_ET0_T_S6_S5_St26random_access_iterator_tag @ 1605
;	std::string* std::__copy_backward<std::string*, std::string*>(std::string*, std::string*, std::string*, std::random_access_iterator_tag)
	_ZSt15__copy_backwardIPSsS0_ET0_T_S2_S1_St26random_access_iterator_tag @ 1606
;	void std::__insertion_sort<__gnu_cxx::__normal_iterator<char*, std::string> >(__gnu_cxx::__normal_iterator<char*, std::string>, __gnu_cxx::__normal_iterator<char*, std::string>)
	_ZSt16__insertion_sortIN9__gnu_cxx17__normal_iteratorIPcSsEEEvT_S4_ @ 1607
;	void std::__insertion_sort<__gnu_cxx::__normal_iterator<wchar_t*, std::basic_string<wchar_t, std::char_traits<wchar_t>, std::allocator<wchar_t> > > >(__gnu_cxx::__normal_iterator<wchar_t*, std::basic_string<wchar_t, std::char_traits<wchar_t>, std::allocator<wchar_t> > >, __gnu_cxx::__normal_iterator<wchar_t*, std::basic_string<wchar_t, std::char_traits<wchar_t>, std::allocator<wchar_t> > >)
	_ZSt16__insertion_sortIN9__gnu_cxx17__normal_iteratorIPwSbIwSt11char_traitsIwESaIwEEEEEvT_S8_ @ 1608
;	void std::__introsort_loop<__gnu_cxx::__normal_iterator<char*, std::string>, int>(__gnu_cxx::__normal_iterator<char*, std::string>, __gnu_cxx::__normal_iterator<char*, std::string>, int)
	_ZSt16__introsort_loopIN9__gnu_cxx17__normal_iteratorIPcSsEEiEvT_S4_T0_ @ 1609
;	void std::__introsort_loop<__gnu_cxx::__normal_iterator<wchar_t*, std::basic_string<wchar_t, std::char_traits<wchar_t>, std::allocator<wchar_t> > >, int>(__gnu_cxx::__normal_iterator<wchar_t*, std::basic_string<wchar_t, std::char_traits<wchar_t>, std::allocator<wchar_t> > >, __gnu_cxx::__normal_iterator<wchar_t*, std::basic_string<wchar_t, std::char_traits<wchar_t>, std::allocator<wchar_t> > >, int)
	_ZSt16__introsort_loopIN9__gnu_cxx17__normal_iteratorIPwSbIwSt11char_traitsIwESaIwEEEEiEvT_S8_T0_ @ 1610
;	char* std::set_intersection<__gnu_cxx::__normal_iterator<char*, std::string>, __gnu_cxx::__normal_iterator<char*, std::string>, char*>(__gnu_cxx::__normal_iterator<char*, std::string>, __gnu_cxx::__normal_iterator<char*, std::string>, __gnu_cxx::__normal_iterator<char*, std::string>, __gnu_cxx::__normal_iterator<char*, std::string>, char*)
	_ZSt16set_intersectionIN9__gnu_cxx17__normal_iteratorIPcSsEES3_S2_ET1_T_S5_T0_S6_S4_ @ 1611
;	wchar_t* std::set_intersection<__gnu_cxx::__normal_iterator<wchar_t*, std::basic_string<wchar_t, std::char_traits<wchar_t>, std::allocator<wchar_t> > >, __gnu_cxx::__normal_iterator<wchar_t*, std::basic_string<wchar_t, std::char_traits<wchar_t>, std::allocator<wchar_t> > >, wchar_t*>(__gnu_cxx::__normal_iterator<wchar_t*, std::basic_string<wchar_t, std::char_traits<wchar_t>, std::allocator<wchar_t> > >, __gnu_cxx::__normal_iterator<wchar_t*, std::basic_string<wchar_t, std::char_traits<wchar_t>, std::allocator<wchar_t> > >, __gnu_cxx::__normal_iterator<wchar_t*, std::basic_string<wchar_t, std::char_traits<wchar_t>, std::allocator<wchar_t> > >, __gnu_cxx::__normal_iterator<wchar_t*, std::basic_string<wchar_t, std::char_traits<wchar_t>, std::allocator<wchar_t> > >, wchar_t*)
	_ZSt16set_intersectionIN9__gnu_cxx17__normal_iteratorIPwSbIwSt11char_traitsIwESaIwEEEES7_S2_ET1_T_S9_T0_SA_S8_ @ 1612
;	bool std::__is_null_pointer<wchar_t const>(wchar_t const*)
	_ZSt17__is_null_pointerIKwEbPT_ @ 1613
;	bool std::__is_null_pointer<wchar_t>(wchar_t*)
	_ZSt17__is_null_pointerIwEbPT_ @ 1614
;	std::basic_string<wchar_t, std::char_traits<wchar_t>, std::allocator<wchar_t> >* std::uninitialized_copy<__gnu_cxx::__normal_iterator<std::basic_string<wchar_t, std::char_traits<wchar_t>, std::allocator<wchar_t> > const*, std::vector<std::basic_string<wchar_t, std::char_traits<wchar_t>, std::allocator<wchar_t> >, std::allocator<std::basic_string<wchar_t, std::char_traits<wchar_t>, std::allocator<wchar_t> > > > >, std::basic_string<wchar_t, std::char_traits<wchar_t>, std::allocator<wchar_t> >*>(__gnu_cxx::__normal_iterator<std::basic_string<wchar_t, std::char_traits<wchar_t>, std::allocator<wchar_t> > const*, std::vector<std::basic_string<wchar_t, std::char_traits<wchar_t>, std::allocator<wchar_t> >, std::allocator<std::basic_string<wchar_t, std::char_traits<wchar_t>, std::allocator<wchar_t> > > > >, __gnu_cxx::__normal_iterator<std::basic_string<wchar_t, std::char_traits<wchar_t>, std::allocator<wchar_t> > const*, std::vector<std::basic_string<wchar_t, std::char_traits<wchar_t>, std::allocator<wchar_t> >, std::allocator<std::basic_string<wchar_t, std::char_traits<wchar_t>, std::allocator<wchar_t> > > > >, std::basic_string<wchar_t, std::char_traits<wchar_t>, std::allocator<wchar_t> >*)
	_ZSt18uninitialized_copyIN9__gnu_cxx17__normal_iteratorIPKSbIwSt11char_traitsIwESaIwEESt6vectorIS5_SaIS5_EEEEPS5_ET0_T_SE_SD_ @ 1615
;	std::string* std::uninitialized_copy<__gnu_cxx::__normal_iterator<std::string const*, std::vector<std::string, std::allocator<std::string> > >, std::string*>(__gnu_cxx::__normal_iterator<std::string const*, std::vector<std::string, std::allocator<std::string> > >, __gnu_cxx::__normal_iterator<std::string const*, std::vector<std::string, std::allocator<std::string> > >, std::string*)
	_ZSt18uninitialized_copyIN9__gnu_cxx17__normal_iteratorIPKSsSt6vectorISsSaISsEEEEPSsET0_T_SA_S9_ @ 1616
;	__gnu_cxx::__normal_iterator<std::basic_string<wchar_t, std::char_traits<wchar_t>, std::allocator<wchar_t> >*, std::vector<std::basic_string<wchar_t, std::char_traits<wchar_t>, std::allocator<wchar_t> >, std::allocator<std::basic_string<wchar_t, std::char_traits<wchar_t>, std::allocator<wchar_t> > > > > std::uninitialized_copy<__gnu_cxx::__normal_iterator<std::basic_string<wchar_t, std::char_traits<wchar_t>, std::allocator<wchar_t> >*, std::vector<std::basic_string<wchar_t, std::char_traits<wchar_t>, std::allocator<wchar_t> >, std::allocator<std::basic_string<wchar_t, std::char_traits<wchar_t>, std::allocator<wchar_t> > > > >, __gnu_cxx::__normal_iterator<std::basic_string<wchar_t, std::char_traits<wchar_t>, std::allocator<wchar_t> >*, std::vector<std::basic_string<wchar_t, std::char_traits<wchar_t>, std::allocator<wchar_t> >, std::allocator<std::basic_string<wchar_t, std::char_traits<wchar_t>, std::allocator<wchar_t> > > > > >(__gnu_cxx::__normal_iterator<std::basic_string<wchar_t, std::char_traits<wchar_t>, std::allocator<wchar_t> >*, std::vector<std::basic_string<wchar_t, std::char_traits<wchar_t>, std::allocator<wchar_t> >, std::allocator<std::basic_string<wchar_t, std::char_traits<wchar_t>, std::allocator<wchar_t> > > > >, __gnu_cxx::__normal_iterator<std::basic_string<wchar_t, std::char_traits<wchar_t>, std::allocator<wchar_t> >*, std::vector<std::basic_string<wchar_t, std::char_traits<wchar_t>, std::allocator<wchar_t> >, std::allocator<std::basic_string<wchar_t, std::char_traits<wchar_t>, std::allocator<wchar_t> > > > >, __gnu_cxx::__normal_iterator<std::basic_string<wchar_t, std::char_traits<wchar_t>, std::allocator<wchar_t> >*, std::vector<std::basic_string<wchar_t, std::char_traits<wchar_t>, std::allocator<wchar_t> >, std::allocator<std::basic_string<wchar_t, std::char_traits<wchar_t>, std::allocator<wchar_t> > > > >)
	_ZSt18uninitialized_copyIN9__gnu_cxx17__normal_iteratorIPSbIwSt11char_traitsIwESaIwEESt6vectorIS5_SaIS5_EEEESA_ET0_T_SC_SB_ @ 1617
;	__gnu_cxx::__normal_iterator<std::string*, std::vector<std::string, std::allocator<std::string> > > std::uninitialized_copy<__gnu_cxx::__normal_iterator<std::string*, std::vector<std::string, std::allocator<std::string> > >, __gnu_cxx::__normal_iterator<std::string*, std::vector<std::string, std::allocator<std::string> > > >(__gnu_cxx::__normal_iterator<std::string*, std::vector<std::string, std::allocator<std::string> > >, __gnu_cxx::__normal_iterator<std::string*, std::vector<std::string, std::allocator<std::string> > >, __gnu_cxx::__normal_iterator<std::string*, std::vector<std::string, std::allocator<std::string> > >)
	_ZSt18uninitialized_copyIN9__gnu_cxx17__normal_iteratorIPSsSt6vectorISsSaISsEEEES6_ET0_T_S8_S7_ @ 1618
;	std::basic_string<wchar_t, std::char_traits<wchar_t>, std::allocator<wchar_t> >* std::__copy_backward_aux<std::basic_string<wchar_t, std::char_traits<wchar_t>, std::allocator<wchar_t> >*, std::basic_string<wchar_t, std::char_traits<wchar_t>, std::allocator<wchar_t> >*>(std::basic_string<wchar_t, std::char_traits<wchar_t>, std::allocator<wchar_t> >*, std::basic_string<wchar_t, std::char_traits<wchar_t>, std::allocator<wchar_t> >*, std::basic_string<wchar_t, std::char_traits<wchar_t>, std::allocator<wchar_t> >*)
	_ZSt19__copy_backward_auxIPSbIwSt11char_traitsIwESaIwEES4_ET0_T_S6_S5_ @ 1619
;	std::string* std::__copy_backward_aux<std::string*, std::string*>(std::string*, std::string*, std::string*)
	_ZSt19__copy_backward_auxIPSsS0_ET0_T_S2_S1_ @ 1620
;	char* std::__copy_backward_aux<char*, char*>(char*, char*, char*)
	_ZSt19__copy_backward_auxIPcS0_ET0_T_S2_S1_ @ 1621
;	wchar_t* std::__copy_backward_aux<wchar_t*, wchar_t*>(wchar_t*, wchar_t*, wchar_t*)
	_ZSt19__copy_backward_auxIPwS0_ET0_T_S2_S1_ @ 1622
;	std::iterator_traits<std::basic_string<wchar_t, std::char_traits<wchar_t>, std::allocator<wchar_t> > const*>::iterator_category std::__iterator_category<std::basic_string<wchar_t, std::char_traits<wchar_t>, std::allocator<wchar_t> > const*>(std::basic_string<wchar_t, std::char_traits<wchar_t>, std::allocator<wchar_t> > const* const&)
	_ZSt19__iterator_categoryIPKSbIwSt11char_traitsIwESaIwEEENSt15iterator_traitsIT_E17iterator_categoryERKS7_ @ 1623
;	std::iterator_traits<std::string const*>::iterator_category std::__iterator_category<std::string const*>(std::string const* const&)
	_ZSt19__iterator_categoryIPKSsENSt15iterator_traitsIT_E17iterator_categoryERKS3_ @ 1624
;	std::iterator_traits<wchar_t const*>::iterator_category std::__iterator_category<wchar_t const*>(wchar_t const* const&)
	_ZSt19__iterator_categoryIPKwENSt15iterator_traitsIT_E17iterator_categoryERKS3_ @ 1625
;	std::iterator_traits<std::basic_string<wchar_t, std::char_traits<wchar_t>, std::allocator<wchar_t> >*>::iterator_category std::__iterator_category<std::basic_string<wchar_t, std::char_traits<wchar_t>, std::allocator<wchar_t> >*>(std::basic_string<wchar_t, std::char_traits<wchar_t>, std::allocator<wchar_t> >* const&)
	_ZSt19__iterator_categoryIPSbIwSt11char_traitsIwESaIwEEENSt15iterator_traitsIT_E17iterator_categoryERKS6_ @ 1626
;	std::iterator_traits<std::string*>::iterator_category std::__iterator_category<std::string*>(std::string* const&)
	_ZSt19__iterator_categoryIPSsENSt15iterator_traitsIT_E17iterator_categoryERKS2_ @ 1627
;	std::iterator_traits<wchar_t*>::iterator_category std::__iterator_category<wchar_t*>(wchar_t* const&)
	_ZSt19__iterator_categoryIPwENSt15iterator_traitsIT_E17iterator_categoryERKS2_ @ 1628
;	__gnu_cxx::__normal_iterator<char*, std::string> std::__unguarded_partition<__gnu_cxx::__normal_iterator<char*, std::string>, char>(__gnu_cxx::__normal_iterator<char*, std::string>, __gnu_cxx::__normal_iterator<char*, std::string>, char)
	_ZSt21__unguarded_partitionIN9__gnu_cxx17__normal_iteratorIPcSsEEcET_S4_S4_T0_ @ 1629
;	__gnu_cxx::__normal_iterator<wchar_t*, std::basic_string<wchar_t, std::char_traits<wchar_t>, std::allocator<wchar_t> > > std::__unguarded_partition<__gnu_cxx::__normal_iterator<wchar_t*, std::basic_string<wchar_t, std::char_traits<wchar_t>, std::allocator<wchar_t> > >, wchar_t>(__gnu_cxx::__normal_iterator<wchar_t*, std::basic_string<wchar_t, std::char_traits<wchar_t>, std::allocator<wchar_t> > >, __gnu_cxx::__normal_iterator<wchar_t*, std::basic_string<wchar_t, std::char_traits<wchar_t>, std::allocator<wchar_t> > >, wchar_t)
	_ZSt21__unguarded_partitionIN9__gnu_cxx17__normal_iteratorIPwSbIwSt11char_traitsIwESaIwEEEEwET_S8_S8_T0_ @ 1630
;	void std::__final_insertion_sort<__gnu_cxx::__normal_iterator<char*, std::string> >(__gnu_cxx::__normal_iterator<char*, std::string>, __gnu_cxx::__normal_iterator<char*, std::string>)
	_ZSt22__final_insertion_sortIN9__gnu_cxx17__normal_iteratorIPcSsEEEvT_S4_ @ 1631
;	void std::__final_insertion_sort<__gnu_cxx::__normal_iterator<wchar_t*, std::basic_string<wchar_t, std::char_traits<wchar_t>, std::allocator<wchar_t> > > >(__gnu_cxx::__normal_iterator<wchar_t*, std::basic_string<wchar_t, std::char_traits<wchar_t>, std::allocator<wchar_t> > >, __gnu_cxx::__normal_iterator<wchar_t*, std::basic_string<wchar_t, std::char_traits<wchar_t>, std::allocator<wchar_t> > >)
	_ZSt22__final_insertion_sortIN9__gnu_cxx17__normal_iteratorIPwSbIwSt11char_traitsIwESaIwEEEEEvT_S8_ @ 1632
;	std::basic_string<wchar_t, std::char_traits<wchar_t>, std::allocator<wchar_t> >* std::__uninitialized_copy_aux<__gnu_cxx::__normal_iterator<std::basic_string<wchar_t, std::char_traits<wchar_t>, std::allocator<wchar_t> > const*, std::vector<std::basic_string<wchar_t, std::char_traits<wchar_t>, std::allocator<wchar_t> >, std::allocator<std::basic_string<wchar_t, std::char_traits<wchar_t>, std::allocator<wchar_t> > > > >, std::basic_string<wchar_t, std::char_traits<wchar_t>, std::allocator<wchar_t> >*>(__gnu_cxx::__normal_iterator<std::basic_string<wchar_t, std::char_traits<wchar_t>, std::allocator<wchar_t> > const*, std::vector<std::basic_string<wchar_t, std::char_traits<wchar_t>, std::allocator<wchar_t> >, std::allocator<std::basic_string<wchar_t, std::char_traits<wchar_t>, std::allocator<wchar_t> > > > >, __gnu_cxx::__normal_iterator<std::basic_string<wchar_t, std::char_traits<wchar_t>, std::allocator<wchar_t> > const*, std::vector<std::basic_string<wchar_t, std::char_traits<wchar_t>, std::allocator<wchar_t> >, std::allocator<std::basic_string<wchar_t, std::char_traits<wchar_t>, std::allocator<wchar_t> > > > >, std::basic_string<wchar_t, std::char_traits<wchar_t>, std::allocator<wchar_t> >*, __false_type)
	_ZSt24__uninitialized_copy_auxIN9__gnu_cxx17__normal_iteratorIPKSbIwSt11char_traitsIwESaIwEESt6vectorIS5_SaIS5_EEEEPS5_ET0_T_SE_SD_12__false_type @ 1633
;	std::string* std::__uninitialized_copy_aux<__gnu_cxx::__normal_iterator<std::string const*, std::vector<std::string, std::allocator<std::string> > >, std::string*>(__gnu_cxx::__normal_iterator<std::string const*, std::vector<std::string, std::allocator<std::string> > >, __gnu_cxx::__normal_iterator<std::string const*, std::vector<std::string, std::allocator<std::string> > >, std::string*, __false_type)
	_ZSt24__uninitialized_copy_auxIN9__gnu_cxx17__normal_iteratorIPKSsSt6vectorISsSaISsEEEEPSsET0_T_SA_S9_12__false_type @ 1634
;	__gnu_cxx::__normal_iterator<std::basic_string<wchar_t, std::char_traits<wchar_t>, std::allocator<wchar_t> >*, std::vector<std::basic_string<wchar_t, std::char_traits<wchar_t>, std::allocator<wchar_t> >, std::allocator<std::basic_string<wchar_t, std::char_traits<wchar_t>, std::allocator<wchar_t> > > > > std::__uninitialized_copy_aux<__gnu_cxx::__normal_iterator<std::basic_string<wchar_t, std::char_traits<wchar_t>, std::allocator<wchar_t> >*, std::vector<std::basic_string<wchar_t, std::char_traits<wchar_t>, std::allocator<wchar_t> >, std::allocator<std::basic_string<wchar_t, std::char_traits<wchar_t>, std::allocator<wchar_t> > > > >, __gnu_cxx::__normal_iterator<std::basic_string<wchar_t, std::char_traits<wchar_t>, std::allocator<wchar_t> >*, std::vector<std::basic_string<wchar_t, std::char_traits<wchar_t>, std::allocator<wchar_t> >, std::allocator<std::basic_string<wchar_t, std::char_traits<wchar_t>, std::allocator<wchar_t> > > > > >(__gnu_cxx::__normal_iterator<std::basic_string<wchar_t, std::char_traits<wchar_t>, std::allocator<wchar_t> >*, std::vector<std::basic_string<wchar_t, std::char_traits<wchar_t>, std::allocator<wchar_t> >, std::allocator<std::basic_string<wchar_t, std::char_traits<wchar_t>, std::allocator<wchar_t> > > > >, __gnu_cxx::__normal_iterator<std::basic_string<wchar_t, std::char_traits<wchar_t>, std::allocator<wchar_t> >*, std::vector<std::basic_string<wchar_t, std::char_traits<wchar_t>, std::allocator<wchar_t> >, std::allocator<std::basic_string<wchar_t, std::char_traits<wchar_t>, std::allocator<wchar_t> > > > >, __gnu_cxx::__normal_iterator<std::basic_string<wchar_t, std::char_traits<wchar_t>, std::allocator<wchar_t> >*, std::vector<std::basic_string<wchar_t, std::char_traits<wchar_t>, std::allocator<wchar_t> >, std::allocator<std::basic_string<wchar_t, std::char_traits<wchar_t>, std::allocator<wchar_t> > > > >, __false_type)
	_ZSt24__uninitialized_copy_auxIN9__gnu_cxx17__normal_iteratorIPSbIwSt11char_traitsIwESaIwEESt6vectorIS5_SaIS5_EEEESA_ET0_T_SC_SB_12__false_type @ 1635
;	__gnu_cxx::__normal_iterator<std::string*, std::vector<std::string, std::allocator<std::string> > > std::__uninitialized_copy_aux<__gnu_cxx::__normal_iterator<std::string*, std::vector<std::string, std::allocator<std::string> > >, __gnu_cxx::__normal_iterator<std::string*, std::vector<std::string, std::allocator<std::string> > > >(__gnu_cxx::__normal_iterator<std::string*, std::vector<std::string, std::allocator<std::string> > >, __gnu_cxx::__normal_iterator<std::string*, std::vector<std::string, std::allocator<std::string> > >, __gnu_cxx::__normal_iterator<std::string*, std::vector<std::string, std::allocator<std::string> > >, __false_type)
	_ZSt24__uninitialized_copy_auxIN9__gnu_cxx17__normal_iteratorIPSsSt6vectorISsSaISsEEEES6_ET0_T_S8_S7_12__false_type @ 1636
;	void std::__unguarded_linear_insert<__gnu_cxx::__normal_iterator<char*, std::string>, char>(__gnu_cxx::__normal_iterator<char*, std::string>, char)
	_ZSt25__unguarded_linear_insertIN9__gnu_cxx17__normal_iteratorIPcSsEEcEvT_T0_ @ 1637
;	void std::__unguarded_linear_insert<__gnu_cxx::__normal_iterator<wchar_t*, std::basic_string<wchar_t, std::char_traits<wchar_t>, std::allocator<wchar_t> > >, wchar_t>(__gnu_cxx::__normal_iterator<wchar_t*, std::basic_string<wchar_t, std::char_traits<wchar_t>, std::allocator<wchar_t> > >, wchar_t)
	_ZSt25__unguarded_linear_insertIN9__gnu_cxx17__normal_iteratorIPwSbIwSt11char_traitsIwESaIwEEEEwEvT_T0_ @ 1638
;	void std::__unguarded_insertion_sort<__gnu_cxx::__normal_iterator<char*, std::string> >(__gnu_cxx::__normal_iterator<char*, std::string>, __gnu_cxx::__normal_iterator<char*, std::string>)
	_ZSt26__unguarded_insertion_sortIN9__gnu_cxx17__normal_iteratorIPcSsEEEvT_S4_ @ 1639
;	void std::__unguarded_insertion_sort<__gnu_cxx::__normal_iterator<wchar_t*, std::basic_string<wchar_t, std::char_traits<wchar_t>, std::allocator<wchar_t> > > >(__gnu_cxx::__normal_iterator<wchar_t*, std::basic_string<wchar_t, std::char_traits<wchar_t>, std::allocator<wchar_t> > >, __gnu_cxx::__normal_iterator<wchar_t*, std::basic_string<wchar_t, std::char_traits<wchar_t>, std::allocator<wchar_t> > >)
	_ZSt26__unguarded_insertion_sortIN9__gnu_cxx17__normal_iteratorIPwSbIwSt11char_traitsIwESaIwEEEEEvT_S8_ @ 1640
;	__gnu_cxx::__normal_iterator<std::basic_string<wchar_t, std::char_traits<wchar_t>, std::allocator<wchar_t> >*, std::vector<std::basic_string<wchar_t, std::char_traits<wchar_t>, std::allocator<wchar_t> >, std::allocator<std::basic_string<wchar_t, std::char_traits<wchar_t>, std::allocator<wchar_t> > > > > std::__copy_backward_input_normal_iterator<__gnu_cxx::__normal_iterator<std::basic_string<wchar_t, std::char_traits<wchar_t>, std::allocator<wchar_t> >*, std::vector<std::basic_string<wchar_t, std::char_traits<wchar_t>, std::allocator<wchar_t> >, std::allocator<std::basic_string<wchar_t, std::char_traits<wchar_t>, std::allocator<wchar_t> > > > >, __gnu_cxx::__normal_iterator<std::basic_string<wchar_t, std::char_traits<wchar_t>, std::allocator<wchar_t> >*, std::vector<std::basic_string<wchar_t, std::char_traits<wchar_t>, std::allocator<wchar_t> >, std::allocator<std::basic_string<wchar_t, std::char_traits<wchar_t>, std::allocator<wchar_t> > > > > >(__gnu_cxx::__normal_iterator<std::basic_string<wchar_t, std::char_traits<wchar_t>, std::allocator<wchar_t> >*, std::vector<std::basic_string<wchar_t, std::char_traits<wchar_t>, std::allocator<wchar_t> >, std::allocator<std::basic_string<wchar_t, std::char_traits<wchar_t>, std::allocator<wchar_t> > > > >, __gnu_cxx::__normal_iterator<std::basic_string<wchar_t, std::char_traits<wchar_t>, std::allocator<wchar_t> >*, std::vector<std::basic_string<wchar_t, std::char_traits<wchar_t>, std::allocator<wchar_t> >, std::allocator<std::basic_string<wchar_t, std::char_traits<wchar_t>, std::allocator<wchar_t> > > > >, __gnu_cxx::__normal_iterator<std::basic_string<wchar_t, std::char_traits<wchar_t>, std::allocator<wchar_t> >*, std::vector<std::basic_string<wchar_t, std::char_traits<wchar_t>, std::allocator<wchar_t> >, std::allocator<std::basic_string<wchar_t, std::char_traits<wchar_t>, std::allocator<wchar_t> > > > >, __true_type)
	_ZSt37__copy_backward_input_normal_iteratorIN9__gnu_cxx17__normal_iteratorIPSbIwSt11char_traitsIwESaIwEESt6vectorIS5_SaIS5_EEEESA_ET0_T_SC_SB_11__true_type @ 1641
;	__gnu_cxx::__normal_iterator<std::string*, std::vector<std::string, std::allocator<std::string> > > std::__copy_backward_input_normal_iterator<__gnu_cxx::__normal_iterator<std::string*, std::vector<std::string, std::allocator<std::string> > >, __gnu_cxx::__normal_iterator<std::string*, std::vector<std::string, std::allocator<std::string> > > >(__gnu_cxx::__normal_iterator<std::string*, std::vector<std::string, std::allocator<std::string> > >, __gnu_cxx::__normal_iterator<std::string*, std::vector<std::string, std::allocator<std::string> > >, __gnu_cxx::__normal_iterator<std::string*, std::vector<std::string, std::allocator<std::string> > >, __true_type)
	_ZSt37__copy_backward_input_normal_iteratorIN9__gnu_cxx17__normal_iteratorIPSsSt6vectorISsSaISsEEEES6_ET0_T_S8_S7_11__true_type @ 1642
;	__gnu_cxx::__normal_iterator<char*, std::string> std::__copy_backward_input_normal_iterator<__gnu_cxx::__normal_iterator<char*, std::string>, __gnu_cxx::__normal_iterator<char*, std::string> >(__gnu_cxx::__normal_iterator<char*, std::string>, __gnu_cxx::__normal_iterator<char*, std::string>, __gnu_cxx::__normal_iterator<char*, std::string>, __true_type)
	_ZSt37__copy_backward_input_normal_iteratorIN9__gnu_cxx17__normal_iteratorIPcSsEES3_ET0_T_S5_S4_11__true_type @ 1643
;	__gnu_cxx::__normal_iterator<wchar_t*, std::basic_string<wchar_t, std::char_traits<wchar_t>, std::allocator<wchar_t> > > std::__copy_backward_input_normal_iterator<__gnu_cxx::__normal_iterator<wchar_t*, std::basic_string<wchar_t, std::char_traits<wchar_t>, std::allocator<wchar_t> > >, __gnu_cxx::__normal_iterator<wchar_t*, std::basic_string<wchar_t, std::char_traits<wchar_t>, std::allocator<wchar_t> > > >(__gnu_cxx::__normal_iterator<wchar_t*, std::basic_string<wchar_t, std::char_traits<wchar_t>, std::allocator<wchar_t> > >, __gnu_cxx::__normal_iterator<wchar_t*, std::basic_string<wchar_t, std::char_traits<wchar_t>, std::allocator<wchar_t> > >, __gnu_cxx::__normal_iterator<wchar_t*, std::basic_string<wchar_t, std::char_traits<wchar_t>, std::allocator<wchar_t> > >, __true_type)
	_ZSt37__copy_backward_input_normal_iteratorIN9__gnu_cxx17__normal_iteratorIPwSbIwSt11char_traitsIwESaIwEEEES7_ET0_T_S9_S8_11__true_type @ 1644
;	__gnu_cxx::__normal_iterator<std::basic_string<wchar_t, std::char_traits<wchar_t>, std::allocator<wchar_t> >*, std::vector<std::basic_string<wchar_t, std::char_traits<wchar_t>, std::allocator<wchar_t> >, std::allocator<std::basic_string<wchar_t, std::char_traits<wchar_t>, std::allocator<wchar_t> > > > > std::__copy_backward_output_normal_iterator<std::basic_string<wchar_t, std::char_traits<wchar_t>, std::allocator<wchar_t> >*, __gnu_cxx::__normal_iterator<std::basic_string<wchar_t, std::char_traits<wchar_t>, std::allocator<wchar_t> >*, std::vector<std::basic_string<wchar_t, std::char_traits<wchar_t>, std::allocator<wchar_t> >, std::allocator<std::basic_string<wchar_t, std::char_traits<wchar_t>, std::allocator<wchar_t> > > > > >(std::basic_string<wchar_t, std::char_traits<wchar_t>, std::allocator<wchar_t> >*, std::basic_string<wchar_t, std::char_traits<wchar_t>, std::allocator<wchar_t> >*, __gnu_cxx::__normal_iterator<std::basic_string<wchar_t, std::char_traits<wchar_t>, std::allocator<wchar_t> >*, std::vector<std::basic_string<wchar_t, std::char_traits<wchar_t>, std::allocator<wchar_t> >, std::allocator<std::basic_string<wchar_t, std::char_traits<wchar_t>, std::allocator<wchar_t> > > > >, __true_type)
	_ZSt38__copy_backward_output_normal_iteratorIPSbIwSt11char_traitsIwESaIwEEN9__gnu_cxx17__normal_iteratorIS4_St6vectorIS3_SaIS3_EEEEET0_T_SC_SB_11__true_type @ 1645
;	__gnu_cxx::__normal_iterator<std::string*, std::vector<std::string, std::allocator<std::string> > > std::__copy_backward_output_normal_iterator<std::string*, __gnu_cxx::__normal_iterator<std::string*, std::vector<std::string, std::allocator<std::string> > > >(std::string*, std::string*, __gnu_cxx::__normal_iterator<std::string*, std::vector<std::string, std::allocator<std::string> > >, __true_type)
	_ZSt38__copy_backward_output_normal_iteratorIPSsN9__gnu_cxx17__normal_iteratorIS0_St6vectorISsSaISsEEEEET0_T_S8_S7_11__true_type @ 1646
;	__gnu_cxx::__normal_iterator<char*, std::string> std::__copy_backward_output_normal_iterator<char*, __gnu_cxx::__normal_iterator<char*, std::string> >(char*, char*, __gnu_cxx::__normal_iterator<char*, std::string>, __true_type)
	_ZSt38__copy_backward_output_normal_iteratorIPcN9__gnu_cxx17__normal_iteratorIS0_SsEEET0_T_S5_S4_11__true_type @ 1647
;	__gnu_cxx::__normal_iterator<wchar_t*, std::basic_string<wchar_t, std::char_traits<wchar_t>, std::allocator<wchar_t> > > std::__copy_backward_output_normal_iterator<wchar_t*, __gnu_cxx::__normal_iterator<wchar_t*, std::basic_string<wchar_t, std::char_traits<wchar_t>, std::allocator<wchar_t> > > >(wchar_t*, wchar_t*, __gnu_cxx::__normal_iterator<wchar_t*, std::basic_string<wchar_t, std::char_traits<wchar_t>, std::allocator<wchar_t> > >, __true_type)
	_ZSt38__copy_backward_output_normal_iteratorIPwN9__gnu_cxx17__normal_iteratorIS0_SbIwSt11char_traitsIwESaIwEEEEET0_T_S9_S8_11__true_type @ 1648
;	unsigned int const& std::min<unsigned int>(unsigned int const&, unsigned int const&)
	_ZSt3minIjERKT_S2_S2_ @ 1649
;	int std::__lg<int>(int)
	_ZSt4__lgIiET_S0_ @ 1650
;	__gnu_cxx::__normal_iterator<std::basic_string<wchar_t, std::char_traits<wchar_t>, std::allocator<wchar_t> >*, std::vector<std::basic_string<wchar_t, std::char_traits<wchar_t>, std::allocator<wchar_t> >, std::allocator<std::basic_string<wchar_t, std::char_traits<wchar_t>, std::allocator<wchar_t> > > > > std::copy<__gnu_cxx::__normal_iterator<std::basic_string<wchar_t, std::char_traits<wchar_t>, std::allocator<wchar_t> > const*, std::vector<std::basic_string<wchar_t, std::char_traits<wchar_t>, std::allocator<wchar_t> >, std::allocator<std::basic_string<wchar_t, std::char_traits<wchar_t>, std::allocator<wchar_t> > > > >, __gnu_cxx::__normal_iterator<std::basic_string<wchar_t, std::char_traits<wchar_t>, std::allocator<wchar_t> >*, std::vector<std::basic_string<wchar_t, std::char_traits<wchar_t>, std::allocator<wchar_t> >, std::allocator<std::basic_string<wchar_t, std::char_traits<wchar_t>, std::allocator<wchar_t> > > > > >(__gnu_cxx::__normal_iterator<std::basic_string<wchar_t, std::char_traits<wchar_t>, std::allocator<wchar_t> > const*, std::vector<std::basic_string<wchar_t, std::char_traits<wchar_t>, std::allocator<wchar_t> >, std::allocator<std::basic_string<wchar_t, std::char_traits<wchar_t>, std::allocator<wchar_t> > > > >, __gnu_cxx::__normal_iterator<std::basic_string<wchar_t, std::char_traits<wchar_t>, std::allocator<wchar_t> > const*, std::vector<std::basic_string<wchar_t, std::char_traits<wchar_t>, std::allocator<wchar_t> >, std::allocator<std::basic_string<wchar_t, std::char_traits<wchar_t>, std::allocator<wchar_t> > > > >, __gnu_cxx::__normal_iterator<std::basic_string<wchar_t, std::char_traits<wchar_t>, std::allocator<wchar_t> >*, std::vector<std::basic_string<wchar_t, std::char_traits<wchar_t>, std::allocator<wchar_t> >, std::allocator<std::basic_string<wchar_t, std::char_traits<wchar_t>, std::allocator<wchar_t> > > > >)
	_ZSt4copyIN9__gnu_cxx17__normal_iteratorIPKSbIwSt11char_traitsIwESaIwEESt6vectorIS5_SaIS5_EEEENS1_IPS5_SA_EEET0_T_SF_SE_ @ 1651
;	std::basic_string<wchar_t, std::char_traits<wchar_t>, std::allocator<wchar_t> >* std::copy<__gnu_cxx::__normal_iterator<std::basic_string<wchar_t, std::char_traits<wchar_t>, std::allocator<wchar_t> > const*, std::vector<std::basic_string<wchar_t, std::char_traits<wchar_t>, std::allocator<wchar_t> >, std::allocator<std::basic_string<wchar_t, std::char_traits<wchar_t>, std::allocator<wchar_t> > > > >, std::basic_string<wchar_t, std::char_traits<wchar_t>, std::allocator<wchar_t> >*>(__gnu_cxx::__normal_iterator<std::basic_string<wchar_t, std::char_traits<wchar_t>, std::allocator<wchar_t> > const*, std::vector<std::basic_string<wchar_t, std::char_traits<wchar_t>, std::allocator<wchar_t> >, std::allocator<std::basic_string<wchar_t, std::char_traits<wchar_t>, std::allocator<wchar_t> > > > >, __gnu_cxx::__normal_iterator<std::basic_string<wchar_t, std::char_traits<wchar_t>, std::allocator<wchar_t> > const*, std::vector<std::basic_string<wchar_t, std::char_traits<wchar_t>, std::allocator<wchar_t> >, std::allocator<std::basic_string<wchar_t, std::char_traits<wchar_t>, std::allocator<wchar_t> > > > >, std::basic_string<wchar_t, std::char_traits<wchar_t>, std::allocator<wchar_t> >*)
	_ZSt4copyIN9__gnu_cxx17__normal_iteratorIPKSbIwSt11char_traitsIwESaIwEESt6vectorIS5_SaIS5_EEEEPS5_ET0_T_SE_SD_ @ 1652
;	__gnu_cxx::__normal_iterator<std::string*, std::vector<std::string, std::allocator<std::string> > > std::copy<__gnu_cxx::__normal_iterator<std::string const*, std::vector<std::string, std::allocator<std::string> > >, __gnu_cxx::__normal_iterator<std::string*, std::vector<std::string, std::allocator<std::string> > > >(__gnu_cxx::__normal_iterator<std::string const*, std::vector<std::string, std::allocator<std::string> > >, __gnu_cxx::__normal_iterator<std::string const*, std::vector<std::string, std::allocator<std::string> > >, __gnu_cxx::__normal_iterator<std::string*, std::vector<std::string, std::allocator<std::string> > >)
	_ZSt4copyIN9__gnu_cxx17__normal_iteratorIPKSsSt6vectorISsSaISsEEEENS1_IPSsS6_EEET0_T_SB_SA_ @ 1653
;	std::string* std::copy<__gnu_cxx::__normal_iterator<std::string const*, std::vector<std::string, std::allocator<std::string> > >, std::string*>(__gnu_cxx::__normal_iterator<std::string const*, std::vector<std::string, std::allocator<std::string> > >, __gnu_cxx::__normal_iterator<std::string const*, std::vector<std::string, std::allocator<std::string> > >, std::string*)
	_ZSt4copyIN9__gnu_cxx17__normal_iteratorIPKSsSt6vectorISsSaISsEEEEPSsET0_T_SA_S9_ @ 1654
;	char* std::copy<__gnu_cxx::__normal_iterator<char*, std::string>, char*>(__gnu_cxx::__normal_iterator<char*, std::string>, __gnu_cxx::__normal_iterator<char*, std::string>, char*)
	_ZSt4copyIN9__gnu_cxx17__normal_iteratorIPcSsEES2_ET0_T_S5_S4_ @ 1655
;	wchar_t* std::copy<__gnu_cxx::__normal_iterator<wchar_t*, std::basic_string<wchar_t, std::char_traits<wchar_t>, std::allocator<wchar_t> > >, wchar_t*>(__gnu_cxx::__normal_iterator<wchar_t*, std::basic_string<wchar_t, std::char_traits<wchar_t>, std::allocator<wchar_t> > >, __gnu_cxx::__normal_iterator<wchar_t*, std::basic_string<wchar_t, std::char_traits<wchar_t>, std::allocator<wchar_t> > >, wchar_t*)
	_ZSt4copyIN9__gnu_cxx17__normal_iteratorIPwSbIwSt11char_traitsIwESaIwEEEES2_ET0_T_S9_S8_ @ 1656
;	void std::sort<__gnu_cxx::__normal_iterator<char*, std::string> >(__gnu_cxx::__normal_iterator<char*, std::string>, __gnu_cxx::__normal_iterator<char*, std::string>)
	_ZSt4sortIN9__gnu_cxx17__normal_iteratorIPcSsEEEvT_S4_ @ 1657
;	void std::sort<__gnu_cxx::__normal_iterator<wchar_t*, std::basic_string<wchar_t, std::char_traits<wchar_t>, std::allocator<wchar_t> > > >(__gnu_cxx::__normal_iterator<wchar_t*, std::basic_string<wchar_t, std::char_traits<wchar_t>, std::allocator<wchar_t> > >, __gnu_cxx::__normal_iterator<wchar_t*, std::basic_string<wchar_t, std::char_traits<wchar_t>, std::allocator<wchar_t> > >)
	_ZSt4sortIN9__gnu_cxx17__normal_iteratorIPwSbIwSt11char_traitsIwESaIwEEEEEvT_S8_ @ 1658
;	std::basic_string<wchar_t, std::char_traits<wchar_t>, std::allocator<wchar_t> >* std::__copy<std::basic_string<wchar_t, std::char_traits<wchar_t>, std::allocator<wchar_t> > const*, std::basic_string<wchar_t, std::char_traits<wchar_t>, std::allocator<wchar_t> >*>(std::basic_string<wchar_t, std::char_traits<wchar_t>, std::allocator<wchar_t> > const*, std::basic_string<wchar_t, std::char_traits<wchar_t>, std::allocator<wchar_t> > const*, std::basic_string<wchar_t, std::char_traits<wchar_t>, std::allocator<wchar_t> >*, std::random_access_iterator_tag)
	_ZSt6__copyIPKSbIwSt11char_traitsIwESaIwEEPS3_ET0_T_S8_S7_St26random_access_iterator_tag @ 1659
;	std::string* std::__copy<std::string const*, std::string*>(std::string const*, std::string const*, std::string*, std::random_access_iterator_tag)
	_ZSt6__copyIPKSsPSsET0_T_S4_S3_St26random_access_iterator_tag @ 1660
;	void std::_Destroy<__gnu_cxx::__normal_iterator<std::basic_string<wchar_t, std::char_traits<wchar_t>, std::allocator<wchar_t> >*, std::vector<std::basic_string<wchar_t, std::char_traits<wchar_t>, std::allocator<wchar_t> >, std::allocator<std::basic_string<wchar_t, std::char_traits<wchar_t>, std::allocator<wchar_t> > > > > >(__gnu_cxx::__normal_iterator<std::basic_string<wchar_t, std::char_traits<wchar_t>, std::allocator<wchar_t> >*, std::vector<std::basic_string<wchar_t, std::char_traits<wchar_t>, std::allocator<wchar_t> >, std::allocator<std::basic_string<wchar_t, std::char_traits<wchar_t>, std::allocator<wchar_t> > > > >, __gnu_cxx::__normal_iterator<std::basic_string<wchar_t, std::char_traits<wchar_t>, std::allocator<wchar_t> >*, std::vector<std::basic_string<wchar_t, std::char_traits<wchar_t>, std::allocator<wchar_t> >, std::allocator<std::basic_string<wchar_t, std::char_traits<wchar_t>, std::allocator<wchar_t> > > > >)
	_ZSt8_DestroyIN9__gnu_cxx17__normal_iteratorIPSbIwSt11char_traitsIwESaIwEESt6vectorIS5_SaIS5_EEEEEvT_SB_ @ 1661
;	void std::_Destroy<__gnu_cxx::__normal_iterator<std::string*, std::vector<std::string, std::allocator<std::string> > > >(__gnu_cxx::__normal_iterator<std::string*, std::vector<std::string, std::allocator<std::string> > >, __gnu_cxx::__normal_iterator<std::string*, std::vector<std::string, std::allocator<std::string> > >)
	_ZSt8_DestroyIN9__gnu_cxx17__normal_iteratorIPSsSt6vectorISsSaISsEEEEEvT_S7_ @ 1662
;	void std::_Destroy<std::basic_string<wchar_t, std::char_traits<wchar_t>, std::allocator<wchar_t> >*>(std::basic_string<wchar_t, std::char_traits<wchar_t>, std::allocator<wchar_t> >*, std::basic_string<wchar_t, std::char_traits<wchar_t>, std::allocator<wchar_t> >*)
	_ZSt8_DestroyIPSbIwSt11char_traitsIwESaIwEEEvT_S5_ @ 1663
;	void std::_Destroy<std::string*>(std::string*, std::string*)
	_ZSt8_DestroyIPSsEvT_S1_ @ 1664
;	void std::_Destroy<std::basic_string<wchar_t, std::char_traits<wchar_t>, std::allocator<wchar_t> > >(std::basic_string<wchar_t, std::char_traits<wchar_t>, std::allocator<wchar_t> >*)
	_ZSt8_DestroyISbIwSt11char_traitsIwESaIwEEEvPT_ @ 1665
;	void std::_Destroy<std::string>(std::string*)
	_ZSt8_DestroyISsEvPT_ @ 1666
;	void std::_Destroy<std::pair<NFANode* const, bool> >(std::pair<NFANode* const, bool>*)
	_ZSt8_DestroyISt4pairIKP7NFANodebEEvPT_ @ 1667
;	void std::_Destroy<std::pair<NFAUNode* const, bool> >(std::pair<NFAUNode* const, bool>*)
	_ZSt8_DestroyISt4pairIKP8NFAUNodebEEvPT_ @ 1668
;	void std::_Destroy<std::pair<std::basic_string<wchar_t, std::char_traits<wchar_t>, std::allocator<wchar_t> > const, WCPattern*> >(std::pair<std::basic_string<wchar_t, std::char_traits<wchar_t>, std::allocator<wchar_t> > const, WCPattern*>*)
	_ZSt8_DestroyISt4pairIKSbIwSt11char_traitsIwESaIwEEP9WCPatternEEvPT_ @ 1669
;	void std::_Destroy<std::pair<std::basic_string<wchar_t, std::char_traits<wchar_t>, std::allocator<wchar_t> > const, std::pair<std::basic_string<wchar_t, std::char_traits<wchar_t>, std::allocator<wchar_t> >, unsigned long> > >(std::pair<std::basic_string<wchar_t, std::char_traits<wchar_t>, std::allocator<wchar_t> > const, std::pair<std::basic_string<wchar_t, std::char_traits<wchar_t>, std::allocator<wchar_t> >, unsigned long> >*)
	_ZSt8_DestroyISt4pairIKSbIwSt11char_traitsIwESaIwEES0_IS4_mEEEvPT_ @ 1670
;	void std::_Destroy<std::pair<std::string const, Pattern*> >(std::pair<std::string const, Pattern*>*)
	_ZSt8_DestroyISt4pairIKSsP7PatternEEvPT_ @ 1671
;	void std::_Destroy<std::pair<std::string const, std::pair<std::string, unsigned long> > >(std::pair<std::string const, std::pair<std::string, unsigned long> >*)
	_ZSt8_DestroyISt4pairIKSsS0_ISsmEEEvPT_ @ 1672
;	void std::_Destroy<std::pair<char const, bool> >(std::pair<char const, bool>*)
	_ZSt8_DestroyISt4pairIKcbEEvPT_ @ 1673
;	void std::_Destroy<std::pair<wchar_t const, bool> >(std::pair<wchar_t const, bool>*)
	_ZSt8_DestroyISt4pairIKwbEEvPT_ @ 1674
;	char const& std::__median<char>(char const&, char const&, char const&)
	_ZSt8__medianIcERKT_S2_S2_S2_ @ 1675
;	wchar_t const& std::__median<wchar_t>(wchar_t const&, wchar_t const&, wchar_t const&)
	_ZSt8__medianIwERKT_S2_S2_S2_ @ 1676
;	std::iterator_traits<wchar_t const*>::difference_type std::distance<wchar_t const*>(wchar_t const*, wchar_t const*)
	_ZSt8distanceIPKwENSt15iterator_traitsIT_E15difference_typeES3_S3_ @ 1677
;	std::iterator_traits<wchar_t*>::difference_type std::distance<wchar_t*>(wchar_t*, wchar_t*)
	_ZSt8distanceIPwENSt15iterator_traitsIT_E15difference_typeES2_S2_ @ 1678
;	void std::pop_heap<__gnu_cxx::__normal_iterator<char*, std::string> >(__gnu_cxx::__normal_iterator<char*, std::string>, __gnu_cxx::__normal_iterator<char*, std::string>)
	_ZSt8pop_heapIN9__gnu_cxx17__normal_iteratorIPcSsEEEvT_S4_ @ 1679
;	void std::pop_heap<__gnu_cxx::__normal_iterator<wchar_t*, std::basic_string<wchar_t, std::char_traits<wchar_t>, std::allocator<wchar_t> > > >(__gnu_cxx::__normal_iterator<wchar_t*, std::basic_string<wchar_t, std::char_traits<wchar_t>, std::allocator<wchar_t> > >, __gnu_cxx::__normal_iterator<wchar_t*, std::basic_string<wchar_t, std::char_traits<wchar_t>, std::allocator<wchar_t> > >)
	_ZSt8pop_heapIN9__gnu_cxx17__normal_iteratorIPwSbIwSt11char_traitsIwESaIwEEEEEvT_S8_ @ 1680
;	void std::iter_swap<__gnu_cxx::__normal_iterator<char*, std::string>, __gnu_cxx::__normal_iterator<char*, std::string> >(__gnu_cxx::__normal_iterator<char*, std::string>, __gnu_cxx::__normal_iterator<char*, std::string>)
	_ZSt9iter_swapIN9__gnu_cxx17__normal_iteratorIPcSsEES3_EvT_T0_ @ 1681
;	void std::iter_swap<__gnu_cxx::__normal_iterator<wchar_t*, std::basic_string<wchar_t, std::char_traits<wchar_t>, std::allocator<wchar_t> > >, __gnu_cxx::__normal_iterator<wchar_t*, std::basic_string<wchar_t, std::char_traits<wchar_t>, std::allocator<wchar_t> > > >(__gnu_cxx::__normal_iterator<wchar_t*, std::basic_string<wchar_t, std::char_traits<wchar_t>, std::allocator<wchar_t> > >, __gnu_cxx::__normal_iterator<wchar_t*, std::basic_string<wchar_t, std::char_traits<wchar_t>, std::allocator<wchar_t> > >)
	_ZSt9iter_swapIN9__gnu_cxx17__normal_iteratorIPwSbIwSt11char_traitsIwESaIwEEEES7_EvT_T0_ @ 1682
;	void std::make_heap<__gnu_cxx::__normal_iterator<char*, std::string> >(__gnu_cxx::__normal_iterator<char*, std::string>, __gnu_cxx::__normal_iterator<char*, std::string>)
	_ZSt9make_heapIN9__gnu_cxx17__normal_iteratorIPcSsEEEvT_S4_ @ 1683
;	void std::make_heap<__gnu_cxx::__normal_iterator<wchar_t*, std::basic_string<wchar_t, std::char_traits<wchar_t>, std::allocator<wchar_t> > > >(__gnu_cxx::__normal_iterator<wchar_t*, std::basic_string<wchar_t, std::char_traits<wchar_t>, std::allocator<wchar_t> > >, __gnu_cxx::__normal_iterator<wchar_t*, std::basic_string<wchar_t, std::char_traits<wchar_t>, std::allocator<wchar_t> > >)
	_ZSt9make_heapIN9__gnu_cxx17__normal_iteratorIPwSbIwSt11char_traitsIwESaIwEEEEEvT_S8_ @ 1684
;	std::pair<std::basic_string<wchar_t, std::char_traits<wchar_t>, std::allocator<wchar_t> >, unsigned long> std::make_pair<std::basic_string<wchar_t, std::char_traits<wchar_t>, std::allocator<wchar_t> >, unsigned long>(std::basic_string<wchar_t, std::char_traits<wchar_t>, std::allocator<wchar_t> >, unsigned long)
	_ZSt9make_pairISbIwSt11char_traitsIwESaIwEEmESt4pairIT_T0_ES5_S6_ @ 1685
;	std::pair<std::string, unsigned long> std::make_pair<std::string, unsigned long>(std::string, unsigned long)
	_ZSt9make_pairISsmESt4pairIT_T0_ES1_S2_ @ 1686
;	char* std::set_union<__gnu_cxx::__normal_iterator<char*, std::string>, __gnu_cxx::__normal_iterator<char*, std::string>, char*>(__gnu_cxx::__normal_iterator<char*, std::string>, __gnu_cxx::__normal_iterator<char*, std::string>, __gnu_cxx::__normal_iterator<char*, std::string>, __gnu_cxx::__normal_iterator<char*, std::string>, char*)
	_ZSt9set_unionIN9__gnu_cxx17__normal_iteratorIPcSsEES3_S2_ET1_T_S5_T0_S6_S4_ @ 1687
;	wchar_t* std::set_union<__gnu_cxx::__normal_iterator<wchar_t*, std::basic_string<wchar_t, std::char_traits<wchar_t>, std::allocator<wchar_t> > >, __gnu_cxx::__normal_iterator<wchar_t*, std::basic_string<wchar_t, std::char_traits<wchar_t>, std::allocator<wchar_t> > >, wchar_t*>(__gnu_cxx::__normal_iterator<wchar_t*, std::basic_string<wchar_t, std::char_traits<wchar_t>, std::allocator<wchar_t> > >, __gnu_cxx::__normal_iterator<wchar_t*, std::basic_string<wchar_t, std::char_traits<wchar_t>, std::allocator<wchar_t> > >, __gnu_cxx::__normal_iterator<wchar_t*, std::basic_string<wchar_t, std::char_traits<wchar_t>, std::allocator<wchar_t> > >, __gnu_cxx::__normal_iterator<wchar_t*, std::basic_string<wchar_t, std::char_traits<wchar_t>, std::allocator<wchar_t> > >, wchar_t*)
	_ZSt9set_unionIN9__gnu_cxx17__normal_iteratorIPwSbIwSt11char_traitsIwESaIwEEEES7_S2_ET1_T_S9_T0_SA_S8_ @ 1688
;	void std::sort_heap<__gnu_cxx::__normal_iterator<char*, std::string> >(__gnu_cxx::__normal_iterator<char*, std::string>, __gnu_cxx::__normal_iterator<char*, std::string>)
	_ZSt9sort_heapIN9__gnu_cxx17__normal_iteratorIPcSsEEEvT_S4_ @ 1689
;	void std::sort_heap<__gnu_cxx::__normal_iterator<wchar_t*, std::basic_string<wchar_t, std::char_traits<wchar_t>, std::allocator<wchar_t> > > >(__gnu_cxx::__normal_iterator<wchar_t*, std::basic_string<wchar_t, std::char_traits<wchar_t>, std::allocator<wchar_t> > >, __gnu_cxx::__normal_iterator<wchar_t*, std::basic_string<wchar_t, std::char_traits<wchar_t>, std::allocator<wchar_t> > >)
	_ZSt9sort_heapIN9__gnu_cxx17__normal_iteratorIPwSbIwSt11char_traitsIwESaIwEEEEEvT_S8_ @ 1690
;	bool std::operator==<char, std::char_traits<char>, std::allocator<char> >(std::basic_string<char, std::char_traits<char>, std::allocator<char> > const&, char const*)
	_ZSteqIcSt11char_traitsIcESaIcEEbRKSbIT_T0_T1_EPKS3_ @ 1691
;	bool std::operator==<char, std::char_traits<char>, std::allocator<char> >(std::basic_string<char, std::char_traits<char>, std::allocator<char> > const&, std::basic_string<char, std::char_traits<char>, std::allocator<char> > const&)
	_ZSteqIcSt11char_traitsIcESaIcEEbRKSbIT_T0_T1_ES8_ @ 1692
;	bool std::operator==<wchar_t, std::char_traits<wchar_t>, std::allocator<wchar_t> >(std::basic_string<wchar_t, std::char_traits<wchar_t>, std::allocator<wchar_t> > const&, wchar_t const*)
	_ZSteqIwSt11char_traitsIwESaIwEEbRKSbIT_T0_T1_EPKS3_ @ 1693
;	bool std::operator==<wchar_t, std::char_traits<wchar_t>, std::allocator<wchar_t> >(std::basic_string<wchar_t, std::char_traits<wchar_t>, std::allocator<wchar_t> > const&, std::basic_string<wchar_t, std::char_traits<wchar_t>, std::allocator<wchar_t> > const&)
	_ZSteqIwSt11char_traitsIwESaIwEEbRKSbIT_T0_T1_ES8_ @ 1694
;	bool std::operator==<wchar_t, wchar_t>(std::allocator<wchar_t> const&, std::allocator<wchar_t> const&)
	_ZSteqIwwEbRKSaIT_ERKSaIT0_E @ 1695
;	bool std::operator< <char, std::char_traits<char>, std::allocator<char> >(std::basic_string<char, std::char_traits<char>, std::allocator<char> > const&, std::basic_string<char, std::char_traits<char>, std::allocator<char> > const&)
	_ZStltIcSt11char_traitsIcESaIcEEbRKSbIT_T0_T1_ES8_ @ 1696
;	bool std::operator< <wchar_t, std::char_traits<wchar_t>, std::allocator<wchar_t> >(std::basic_string<wchar_t, std::char_traits<wchar_t>, std::allocator<wchar_t> > const&, std::basic_string<wchar_t, std::char_traits<wchar_t>, std::allocator<wchar_t> > const&)
	_ZStltIwSt11char_traitsIwESaIwEEbRKSbIT_T0_T1_ES8_ @ 1697
;	bool std::operator!=<char, std::char_traits<char>, std::allocator<char> >(std::basic_string<char, std::char_traits<char>, std::allocator<char> > const&, std::basic_string<char, std::char_traits<char>, std::allocator<char> > const&)
	_ZStneIcSt11char_traitsIcESaIcEEbRKSbIT_T0_T1_ES8_ @ 1698
;	bool std::operator!=<wchar_t, std::char_traits<wchar_t>, std::allocator<wchar_t> >(std::basic_string<wchar_t, std::char_traits<wchar_t>, std::allocator<wchar_t> > const&, std::basic_string<wchar_t, std::char_traits<wchar_t>, std::allocator<wchar_t> > const&)
	_ZStneIwSt11char_traitsIwESaIwEEbRKSbIT_T0_T1_ES8_ @ 1699
;	typeinfo for ItemIDList
	_ZTI10ItemIDList @ 1700 DATA
;	typeinfo for NFAEndNode
	_ZTI10NFAEndNode @ 1701 DATA
;	typeinfo for NFAOrUNode
	_ZTI10NFAOrUNode @ 1702 DATA
;	typeinfo for NFACharNode
	_ZTI11NFACharNode @ 1703 DATA
;	typeinfo for NFAEndUNode
	_ZTI11NFAEndUNode @ 1704 DATA
;	typeinfo for IContextMenu
	_ZTI12IContextMenu @ 1705 DATA
;	typeinfo for NFACharUNode
	_ZTI12NFACharUNode @ 1706 DATA
;	typeinfo for NFAClassNode
	_ZTI12NFAClassNode @ 1707 DATA
;	typeinfo for NFAQuoteNode
	_ZTI12NFAQuoteNode @ 1708 DATA
;	typeinfo for NFAStartNode
	_ZTI12NFAStartNode @ 1709 DATA
;	typeinfo for TiXmlComment
	_ZTI12TiXmlComment @ 1710 DATA
;	typeinfo for TiXmlElement
	_ZTI12TiXmlElement @ 1711 DATA
;	typeinfo for TiXmlPrinter
	_ZTI12TiXmlPrinter @ 1712 DATA
;	typeinfo for TiXmlUnknown
	_ZTI12TiXmlUnknown @ 1713 DATA
;	typeinfo for TiXmlVisitor
	_ZTI12TiXmlVisitor @ 1714 DATA
;	typeinfo for IClassFactory
	_ZTI13IClassFactory @ 1715 DATA
;	typeinfo for IShellExtInit
	_ZTI13IShellExtInit @ 1716 DATA
;	typeinfo for NFAAcceptNode
	_ZTI13NFAAcceptNode @ 1717 DATA
;	typeinfo for NFACICharNode
	_ZTI13NFACICharNode @ 1718 DATA
;	typeinfo for NFAClassUNode
	_ZTI13NFAClassUNode @ 1719 DATA
;	typeinfo for NFAQuoteUNode
	_ZTI13NFAQuoteUNode @ 1720 DATA
;	typeinfo for NFAStartUNode
	_ZTI13NFAStartUNode @ 1721 DATA
;	typeinfo for TiXmlDocument
	_ZTI13TiXmlDocument @ 1722 DATA
;	typeinfo for NFAAcceptUNode
	_ZTI14NFAAcceptUNode @ 1723 DATA
;	typeinfo for NFACICharUNode
	_ZTI14NFACICharUNode @ 1724 DATA
;	typeinfo for NFACIClassNode
	_ZTI14NFACIClassNode @ 1725 DATA
;	typeinfo for NFACIQuoteNode
	_ZTI14NFACIQuoteNode @ 1726 DATA
;	typeinfo for TiXmlAttribute
	_ZTI14TiXmlAttribute @ 1727 DATA
;	typeinfo for NFACIClassUNode
	_ZTI15NFACIClassUNode @ 1728 DATA
;	typeinfo for NFACIQuoteUNode
	_ZTI15NFACIQuoteUNode @ 1729 DATA
;	typeinfo for NFASubStartNode
	_ZTI15NFASubStartNode @ 1730 DATA
;	typeinfo for NFAEndOfLineNode
	_ZTI16NFAEndOfLineNode @ 1731 DATA
;	typeinfo for NFAGroupHeadNode
	_ZTI16NFAGroupHeadNode @ 1732 DATA
;	typeinfo for NFAGroupLoopNode
	_ZTI16NFAGroupLoopNode @ 1733 DATA
;	typeinfo for NFAGroupTailNode
	_ZTI16NFAGroupTailNode @ 1734 DATA
;	typeinfo for NFALookAheadNode
	_ZTI16NFALookAheadNode @ 1735 DATA
;	typeinfo for NFAReferenceNode
	_ZTI16NFAReferenceNode @ 1736 DATA
;	typeinfo for NFASubStartUNode
	_ZTI16NFASubStartUNode @ 1737 DATA
;	typeinfo for TiXmlDeclaration
	_ZTI16TiXmlDeclaration @ 1738 DATA
;	typeinfo for NFAEndOfInputNode
	_ZTI17NFAEndOfInputNode @ 1739 DATA
;	typeinfo for NFAEndOfLineUNode
	_ZTI17NFAEndOfLineUNode @ 1740 DATA
;	typeinfo for NFAEndOfMatchNode
	_ZTI17NFAEndOfMatchNode @ 1741 DATA
;	typeinfo for NFAGroupHeadUNode
	_ZTI17NFAGroupHeadUNode @ 1742 DATA
;	typeinfo for NFAGroupLoopUNode
	_ZTI17NFAGroupLoopUNode @ 1743 DATA
;	typeinfo for NFAGroupTailUNode
	_ZTI17NFAGroupTailUNode @ 1744 DATA
;	typeinfo for NFALookAheadUNode
	_ZTI17NFALookAheadUNode @ 1745 DATA
;	typeinfo for NFALookBehindNode
	_ZTI17NFALookBehindNode @ 1746 DATA
;	typeinfo for NFAQuantifierNode
	_ZTI17NFAQuantifierNode @ 1747 DATA
;	typeinfo for NFAReferenceUNode
	_ZTI17NFAReferenceUNode @ 1748 DATA
;	typeinfo for NFAEndOfInputUNode
	_ZTI18NFAEndOfInputUNode @ 1749 DATA
;	typeinfo for NFAEndOfMatchUNode
	_ZTI18NFAEndOfMatchUNode @ 1750 DATA
;	typeinfo for NFALookBehindUNode
	_ZTI18NFALookBehindUNode @ 1751 DATA
;	typeinfo for NFAQuantifierUNode
	_ZTI18NFAQuantifierUNode @ 1752 DATA
;	typeinfo for NFAStartOfLineNode
	_ZTI18NFAStartOfLineNode @ 1753 DATA
;	typeinfo for NFAStartOfInputNode
	_ZTI19NFAStartOfInputNode @ 1754 DATA
;	typeinfo for NFAStartOfLineUNode
	_ZTI19NFAStartOfLineUNode @ 1755 DATA
;	typeinfo for NFAWordBoundaryNode
	_ZTI19NFAWordBoundaryNode @ 1756 DATA
;	typeinfo for NFAStartOfInputUNode
	_ZTI20NFAStartOfInputUNode @ 1757 DATA
;	typeinfo for NFAWordBoundaryUNode
	_ZTI20NFAWordBoundaryUNode @ 1758 DATA
;	typeinfo for CShellExtClassFactory
	_ZTI21CShellExtClassFactory @ 1759 DATA
;	typeinfo for NFALazyQuantifierNode
	_ZTI21NFALazyQuantifierNode @ 1760 DATA
;	typeinfo for NFALazyQuantifierUNode
	_ZTI22NFALazyQuantifierUNode @ 1761 DATA
;	typeinfo for NFAGreedyQuantifierNode
	_ZTI23NFAGreedyQuantifierNode @ 1762 DATA
;	typeinfo for NFAGreedyQuantifierUNode
	_ZTI24NFAGreedyQuantifierUNode @ 1763 DATA
;	typeinfo for NFAGroupLoopPrologueNode
	_ZTI24NFAGroupLoopPrologueNode @ 1764 DATA
;	typeinfo for NFAGroupLoopPrologueUNode
	_ZTI25NFAGroupLoopPrologueUNode @ 1765 DATA
;	typeinfo for NFAPossessiveQuantifierNode
	_ZTI27NFAPossessiveQuantifierNode @ 1766 DATA
;	typeinfo for NFAPossessiveQuantifierUNode
	_ZTI28NFAPossessiveQuantifierUNode @ 1767 DATA
;	typeinfo for NFANode
	_ZTI7NFANode @ 1768 DATA
;	typeinfo for IUnknown
	_ZTI8IUnknown @ 1769 DATA
;	typeinfo for NFAUNode
	_ZTI8NFAUNode @ 1770 DATA
;	typeinfo for CShellExt
	_ZTI9CShellExt @ 1771 DATA
;	typeinfo for NFAOrNode
	_ZTI9NFAOrNode @ 1772 DATA
;	typeinfo for TiXmlBase
	_ZTI9TiXmlBase @ 1773 DATA
;	typeinfo for TiXmlNode
	_ZTI9TiXmlNode @ 1774 DATA
;	typeinfo for TiXmlText
	_ZTI9TiXmlText @ 1775 DATA
;	typeinfo name for ItemIDList
	_ZTS10ItemIDList @ 1776 DATA
;	typeinfo name for NFAEndNode
	_ZTS10NFAEndNode @ 1777 DATA
;	typeinfo name for NFAOrUNode
	_ZTS10NFAOrUNode @ 1778 DATA
;	typeinfo name for NFACharNode
	_ZTS11NFACharNode @ 1779 DATA
;	typeinfo name for NFAEndUNode
	_ZTS11NFAEndUNode @ 1780 DATA
;	typeinfo name for IContextMenu
	_ZTS12IContextMenu @ 1781 DATA
;	typeinfo name for NFACharUNode
	_ZTS12NFACharUNode @ 1782 DATA
;	typeinfo name for NFAClassNode
	_ZTS12NFAClassNode @ 1783 DATA
;	typeinfo name for NFAQuoteNode
	_ZTS12NFAQuoteNode @ 1784 DATA
;	typeinfo name for NFAStartNode
	_ZTS12NFAStartNode @ 1785 DATA
;	typeinfo name for TiXmlComment
	_ZTS12TiXmlComment @ 1786 DATA
;	typeinfo name for TiXmlElement
	_ZTS12TiXmlElement @ 1787 DATA
;	typeinfo name for TiXmlPrinter
	_ZTS12TiXmlPrinter @ 1788 DATA
;	typeinfo name for TiXmlUnknown
	_ZTS12TiXmlUnknown @ 1789 DATA
;	typeinfo name for TiXmlVisitor
	_ZTS12TiXmlVisitor @ 1790 DATA
;	typeinfo name for IClassFactory
	_ZTS13IClassFactory @ 1791 DATA
;	typeinfo name for IShellExtInit
	_ZTS13IShellExtInit @ 1792 DATA
;	typeinfo name for NFAAcceptNode
	_ZTS13NFAAcceptNode @ 1793 DATA
;	typeinfo name for NFACICharNode
	_ZTS13NFACICharNode @ 1794 DATA
;	typeinfo name for NFAClassUNode
	_ZTS13NFAClassUNode @ 1795 DATA
;	typeinfo name for NFAQuoteUNode
	_ZTS13NFAQuoteUNode @ 1796 DATA
;	typeinfo name for NFAStartUNode
	_ZTS13NFAStartUNode @ 1797 DATA
;	typeinfo name for TiXmlDocument
	_ZTS13TiXmlDocument @ 1798 DATA
;	typeinfo name for NFAAcceptUNode
	_ZTS14NFAAcceptUNode @ 1799 DATA
;	typeinfo name for NFACICharUNode
	_ZTS14NFACICharUNode @ 1800 DATA
;	typeinfo name for NFACIClassNode
	_ZTS14NFACIClassNode @ 1801 DATA
;	typeinfo name for NFACIQuoteNode
	_ZTS14NFACIQuoteNode @ 1802 DATA
;	typeinfo name for TiXmlAttribute
	_ZTS14TiXmlAttribute @ 1803 DATA
;	typeinfo name for NFACIClassUNode
	_ZTS15NFACIClassUNode @ 1804 DATA
;	typeinfo name for NFACIQuoteUNode
	_ZTS15NFACIQuoteUNode @ 1805 DATA
;	typeinfo name for NFASubStartNode
	_ZTS15NFASubStartNode @ 1806 DATA
;	typeinfo name for NFAEndOfLineNode
	_ZTS16NFAEndOfLineNode @ 1807 DATA
;	typeinfo name for NFAGroupHeadNode
	_ZTS16NFAGroupHeadNode @ 1808 DATA
;	typeinfo name for NFAGroupLoopNode
	_ZTS16NFAGroupLoopNode @ 1809 DATA
;	typeinfo name for NFAGroupTailNode
	_ZTS16NFAGroupTailNode @ 1810 DATA
;	typeinfo name for NFALookAheadNode
	_ZTS16NFALookAheadNode @ 1811 DATA
;	typeinfo name for NFAReferenceNode
	_ZTS16NFAReferenceNode @ 1812 DATA
;	typeinfo name for NFASubStartUNode
	_ZTS16NFASubStartUNode @ 1813 DATA
;	typeinfo name for TiXmlDeclaration
	_ZTS16TiXmlDeclaration @ 1814 DATA
;	typeinfo name for NFAEndOfInputNode
	_ZTS17NFAEndOfInputNode @ 1815 DATA
;	typeinfo name for NFAEndOfLineUNode
	_ZTS17NFAEndOfLineUNode @ 1816 DATA
;	typeinfo name for NFAEndOfMatchNode
	_ZTS17NFAEndOfMatchNode @ 1817 DATA
;	typeinfo name for NFAGroupHeadUNode
	_ZTS17NFAGroupHeadUNode @ 1818 DATA
;	typeinfo name for NFAGroupLoopUNode
	_ZTS17NFAGroupLoopUNode @ 1819 DATA
;	typeinfo name for NFAGroupTailUNode
	_ZTS17NFAGroupTailUNode @ 1820 DATA
;	typeinfo name for NFALookAheadUNode
	_ZTS17NFALookAheadUNode @ 1821 DATA
;	typeinfo name for NFALookBehindNode
	_ZTS17NFALookBehindNode @ 1822 DATA
;	typeinfo name for NFAQuantifierNode
	_ZTS17NFAQuantifierNode @ 1823 DATA
;	typeinfo name for NFAReferenceUNode
	_ZTS17NFAReferenceUNode @ 1824 DATA
;	typeinfo name for NFAEndOfInputUNode
	_ZTS18NFAEndOfInputUNode @ 1825 DATA
;	typeinfo name for NFAEndOfMatchUNode
	_ZTS18NFAEndOfMatchUNode @ 1826 DATA
;	typeinfo name for NFALookBehindUNode
	_ZTS18NFALookBehindUNode @ 1827 DATA
;	typeinfo name for NFAQuantifierUNode
	_ZTS18NFAQuantifierUNode @ 1828 DATA
;	typeinfo name for NFAStartOfLineNode
	_ZTS18NFAStartOfLineNode @ 1829 DATA
;	typeinfo name for NFAStartOfInputNode
	_ZTS19NFAStartOfInputNode @ 1830 DATA
;	typeinfo name for NFAStartOfLineUNode
	_ZTS19NFAStartOfLineUNode @ 1831 DATA
;	typeinfo name for NFAWordBoundaryNode
	_ZTS19NFAWordBoundaryNode @ 1832 DATA
;	typeinfo name for NFAStartOfInputUNode
	_ZTS20NFAStartOfInputUNode @ 1833 DATA
;	typeinfo name for NFAWordBoundaryUNode
	_ZTS20NFAWordBoundaryUNode @ 1834 DATA
;	typeinfo name for CShellExtClassFactory
	_ZTS21CShellExtClassFactory @ 1835 DATA
;	typeinfo name for NFALazyQuantifierNode
	_ZTS21NFALazyQuantifierNode @ 1836 DATA
;	typeinfo name for NFALazyQuantifierUNode
	_ZTS22NFALazyQuantifierUNode @ 1837 DATA
;	typeinfo name for NFAGreedyQuantifierNode
	_ZTS23NFAGreedyQuantifierNode @ 1838 DATA
;	typeinfo name for NFAGreedyQuantifierUNode
	_ZTS24NFAGreedyQuantifierUNode @ 1839 DATA
;	typeinfo name for NFAGroupLoopPrologueNode
	_ZTS24NFAGroupLoopPrologueNode @ 1840 DATA
;	typeinfo name for NFAGroupLoopPrologueUNode
	_ZTS25NFAGroupLoopPrologueUNode @ 1841 DATA
;	typeinfo name for NFAPossessiveQuantifierNode
	_ZTS27NFAPossessiveQuantifierNode @ 1842 DATA
;	typeinfo name for NFAPossessiveQuantifierUNode
	_ZTS28NFAPossessiveQuantifierUNode @ 1843 DATA
;	typeinfo name for NFANode
	_ZTS7NFANode @ 1844 DATA
;	typeinfo name for IUnknown
	_ZTS8IUnknown @ 1845 DATA
;	typeinfo name for NFAUNode
	_ZTS8NFAUNode @ 1846 DATA
;	typeinfo name for CShellExt
	_ZTS9CShellExt @ 1847 DATA
;	typeinfo name for NFAOrNode
	_ZTS9NFAOrNode @ 1848 DATA
;	typeinfo name for TiXmlBase
	_ZTS9TiXmlBase @ 1849 DATA
;	typeinfo name for TiXmlNode
	_ZTS9TiXmlNode @ 1850 DATA
;	typeinfo name for TiXmlText
	_ZTS9TiXmlText @ 1851 DATA
;	vtable for ItemIDList
	_ZTV10ItemIDList @ 1852 DATA
;	vtable for NFAEndNode
	_ZTV10NFAEndNode @ 1853 DATA
;	vtable for NFAOrUNode
	_ZTV10NFAOrUNode @ 1854 DATA
;	vtable for NFACharNode
	_ZTV11NFACharNode @ 1855 DATA
;	vtable for NFAEndUNode
	_ZTV11NFAEndUNode @ 1856 DATA
;	vtable for IContextMenu
	_ZTV12IContextMenu @ 1857 DATA
;	vtable for NFACharUNode
	_ZTV12NFACharUNode @ 1858 DATA
;	vtable for NFAClassNode
	_ZTV12NFAClassNode @ 1859 DATA
;	vtable for NFAQuoteNode
	_ZTV12NFAQuoteNode @ 1860 DATA
;	vtable for NFAStartNode
	_ZTV12NFAStartNode @ 1861 DATA
;	vtable for TiXmlComment
	_ZTV12TiXmlComment @ 1862 DATA
;	vtable for TiXmlElement
	_ZTV12TiXmlElement @ 1863 DATA
;	vtable for TiXmlPrinter
	_ZTV12TiXmlPrinter @ 1864 DATA
;	vtable for TiXmlUnknown
	_ZTV12TiXmlUnknown @ 1865 DATA
;	vtable for TiXmlVisitor
	_ZTV12TiXmlVisitor @ 1866 DATA
;	vtable for IClassFactory
	_ZTV13IClassFactory @ 1867 DATA
;	vtable for IShellExtInit
	_ZTV13IShellExtInit @ 1868 DATA
;	vtable for NFAAcceptNode
	_ZTV13NFAAcceptNode @ 1869 DATA
;	vtable for NFACICharNode
	_ZTV13NFACICharNode @ 1870 DATA
;	vtable for NFAClassUNode
	_ZTV13NFAClassUNode @ 1871 DATA
;	vtable for NFAQuoteUNode
	_ZTV13NFAQuoteUNode @ 1872 DATA
;	vtable for NFAStartUNode
	_ZTV13NFAStartUNode @ 1873 DATA
;	vtable for TiXmlDocument
	_ZTV13TiXmlDocument @ 1874 DATA
;	vtable for NFAAcceptUNode
	_ZTV14NFAAcceptUNode @ 1875 DATA
;	vtable for NFACICharUNode
	_ZTV14NFACICharUNode @ 1876 DATA
;	vtable for NFACIClassNode
	_ZTV14NFACIClassNode @ 1877 DATA
;	vtable for NFACIQuoteNode
	_ZTV14NFACIQuoteNode @ 1878 DATA
;	vtable for TiXmlAttribute
	_ZTV14TiXmlAttribute @ 1879 DATA
;	vtable for NFACIClassUNode
	_ZTV15NFACIClassUNode @ 1880 DATA
;	vtable for NFACIQuoteUNode
	_ZTV15NFACIQuoteUNode @ 1881 DATA
;	vtable for NFASubStartNode
	_ZTV15NFASubStartNode @ 1882 DATA
;	vtable for NFAEndOfLineNode
	_ZTV16NFAEndOfLineNode @ 1883 DATA
;	vtable for NFAGroupHeadNode
	_ZTV16NFAGroupHeadNode @ 1884 DATA
;	vtable for NFAGroupLoopNode
	_ZTV16NFAGroupLoopNode @ 1885 DATA
;	vtable for NFAGroupTailNode
	_ZTV16NFAGroupTailNode @ 1886 DATA
;	vtable for NFALookAheadNode
	_ZTV16NFALookAheadNode @ 1887 DATA
;	vtable for NFAReferenceNode
	_ZTV16NFAReferenceNode @ 1888 DATA
;	vtable for NFASubStartUNode
	_ZTV16NFASubStartUNode @ 1889 DATA
;	vtable for TiXmlDeclaration
	_ZTV16TiXmlDeclaration @ 1890 DATA
;	vtable for NFAEndOfInputNode
	_ZTV17NFAEndOfInputNode @ 1891 DATA
;	vtable for NFAEndOfLineUNode
	_ZTV17NFAEndOfLineUNode @ 1892 DATA
;	vtable for NFAEndOfMatchNode
	_ZTV17NFAEndOfMatchNode @ 1893 DATA
;	vtable for NFAGroupHeadUNode
	_ZTV17NFAGroupHeadUNode @ 1894 DATA
;	vtable for NFAGroupLoopUNode
	_ZTV17NFAGroupLoopUNode @ 1895 DATA
;	vtable for NFAGroupTailUNode
	_ZTV17NFAGroupTailUNode @ 1896 DATA
;	vtable for NFALookAheadUNode
	_ZTV17NFALookAheadUNode @ 1897 DATA
;	vtable for NFALookBehindNode
	_ZTV17NFALookBehindNode @ 1898 DATA
;	vtable for NFAQuantifierNode
	_ZTV17NFAQuantifierNode @ 1899 DATA
;	vtable for NFAReferenceUNode
	_ZTV17NFAReferenceUNode @ 1900 DATA
;	vtable for NFAEndOfInputUNode
	_ZTV18NFAEndOfInputUNode @ 1901 DATA
;	vtable for NFAEndOfMatchUNode
	_ZTV18NFAEndOfMatchUNode @ 1902 DATA
;	vtable for NFALookBehindUNode
	_ZTV18NFALookBehindUNode @ 1903 DATA
;	vtable for NFAQuantifierUNode
	_ZTV18NFAQuantifierUNode @ 1904 DATA
;	vtable for NFAStartOfLineNode
	_ZTV18NFAStartOfLineNode @ 1905 DATA
;	vtable for NFAStartOfInputNode
	_ZTV19NFAStartOfInputNode @ 1906 DATA
;	vtable for NFAStartOfLineUNode
	_ZTV19NFAStartOfLineUNode @ 1907 DATA
;	vtable for NFAWordBoundaryNode
	_ZTV19NFAWordBoundaryNode @ 1908 DATA
;	vtable for NFAStartOfInputUNode
	_ZTV20NFAStartOfInputUNode @ 1909 DATA
;	vtable for NFAWordBoundaryUNode
	_ZTV20NFAWordBoundaryUNode @ 1910 DATA
;	vtable for CShellExtClassFactory
	_ZTV21CShellExtClassFactory @ 1911 DATA
;	vtable for NFALazyQuantifierNode
	_ZTV21NFALazyQuantifierNode @ 1912 DATA
;	vtable for NFALazyQuantifierUNode
	_ZTV22NFALazyQuantifierUNode @ 1913 DATA
;	vtable for NFAGreedyQuantifierNode
	_ZTV23NFAGreedyQuantifierNode @ 1914 DATA
;	vtable for NFAGreedyQuantifierUNode
	_ZTV24NFAGreedyQuantifierUNode @ 1915 DATA
;	vtable for NFAGroupLoopPrologueNode
	_ZTV24NFAGroupLoopPrologueNode @ 1916 DATA
;	vtable for NFAGroupLoopPrologueUNode
	_ZTV25NFAGroupLoopPrologueUNode @ 1917 DATA
;	vtable for NFAPossessiveQuantifierNode
	_ZTV27NFAPossessiveQuantifierNode @ 1918 DATA
;	vtable for NFAPossessiveQuantifierUNode
	_ZTV28NFAPossessiveQuantifierUNode @ 1919 DATA
;	vtable for NFANode
	_ZTV7NFANode @ 1920 DATA
;	vtable for IUnknown
	_ZTV8IUnknown @ 1921 DATA
;	vtable for NFAUNode
	_ZTV8NFAUNode @ 1922 DATA
;	vtable for CShellExt
	_ZTV9CShellExt @ 1923 DATA
;	vtable for NFAOrNode
	_ZTV9NFAOrNode @ 1924 DATA
;	vtable for TiXmlBase
	_ZTV9TiXmlBase @ 1925 DATA
;	vtable for TiXmlNode
	_ZTV9TiXmlNode @ 1926 DATA
;	vtable for TiXmlText
	_ZTV9TiXmlText @ 1927 DATA
	_ZThn4_N9CShellExt10InitializeEPK11_ITEMIDLISTP11IDataObjectP6HKEY__ = _ZThn4_N9CShellExt10InitializeEPK11_ITEMIDLISTP11IDataObjectP6HKEY__@16 @ 1928
	_ZThn4_N9CShellExt10InitializeEPK11_ITEMIDLISTP11IDataObjectP6HKEY__@16 @ 1929
	_ZThn4_N9CShellExt14QueryInterfaceERK5_GUIDPPv = _ZThn4_N9CShellExt14QueryInterfaceERK5_GUIDPPv@12 @ 1930
	_ZThn4_N9CShellExt14QueryInterfaceERK5_GUIDPPv@12 @ 1931
	_ZThn4_N9CShellExt6AddRefEv = _ZThn4_N9CShellExt6AddRefEv@4 @ 1932
	_ZThn4_N9CShellExt6AddRefEv@4 @ 1933
	_ZThn4_N9CShellExt7ReleaseEv = _ZThn4_N9CShellExt7ReleaseEv@4 @ 1934
	_ZThn4_N9CShellExt7ReleaseEv@4 @ 1935
;	operator delete(void*, void*)
	_ZdlPvS_ @ 1936
;	operator new(unsigned int, void*)
	_ZnwjPv @ 1937
;	operator+(char const*, TiXmlString const&)
	_ZplPKcRK11TiXmlString @ 1938
;	operator+(TiXmlString const&, char const*)
	_ZplRK11TiXmlStringPKc @ 1939
;	operator+(TiXmlString const&, TiXmlString const&)
	_ZplRK11TiXmlStringS1_ @ 1940
	_cRef @ 1941 DATA
	_hModule @ 1942 DATA
	emptyMenu @ 1943 DATA
	ferror @ 1944
	m_folder @ 1945 DATA
	szShellExtensionTitle @ 1946 DATA
